
Adaptive_Cruise_Control.elf:     file format elf32-littlearm

Sections:
Idx Name          Size      VMA       LMA       File off  Algn
  0 .isr_vector   00000194  08000000  08000000  00010000  2**0
                  CONTENTS, ALLOC, LOAD, READONLY, DATA
  1 .text         00002f7c  08000198  08000198  00010198  2**3
                  CONTENTS, ALLOC, LOAD, READONLY, CODE
  2 .rodata       00000764  08003114  08003114  00013114  2**2
                  CONTENTS, ALLOC, LOAD, READONLY, DATA
  3 .ARM.extab    00000000  08003878  08003878  00020070  2**0
                  CONTENTS
  4 .ARM          00000000  08003878  08003878  00020070  2**0
                  CONTENTS
  5 .preinit_array 00000000  08003878  08003878  00020070  2**0
                  CONTENTS, ALLOC, LOAD, DATA
  6 .init_array   00000004  08003878  08003878  00013878  2**2
                  CONTENTS, ALLOC, LOAD, DATA
  7 .fini_array   00000004  0800387c  0800387c  0001387c  2**2
                  CONTENTS, ALLOC, LOAD, DATA
  8 .data         00000070  20000000  08003880  00020000  2**2
                  CONTENTS, ALLOC, LOAD, DATA
  9 .bss          000000a4  20000070  080038f0  00020070  2**2
                  ALLOC
 10 ._user_heap_stack 00000604  20000114  080038f0  00020114  2**0
                  ALLOC
 11 .ARM.attributes 00000030  00000000  00000000  00020070  2**0
                  CONTENTS, READONLY
 12 .debug_info   00006bd9  00000000  00000000  000200a0  2**0
                  CONTENTS, READONLY, DEBUGGING, OCTETS
 13 .debug_abbrev 0000150e  00000000  00000000  00026c79  2**0
                  CONTENTS, READONLY, DEBUGGING, OCTETS
 14 .debug_aranges 000005a0  00000000  00000000  00028188  2**3
                  CONTENTS, READONLY, DEBUGGING, OCTETS
 15 .debug_ranges 00000480  00000000  00000000  00028728  2**3
                  CONTENTS, READONLY, DEBUGGING, OCTETS
 16 .debug_macro  00002d64  00000000  00000000  00028ba8  2**0
                  CONTENTS, READONLY, DEBUGGING, OCTETS
 17 .debug_line   000056f9  00000000  00000000  0002b90c  2**0
                  CONTENTS, READONLY, DEBUGGING, OCTETS
 18 .debug_str    0000c402  00000000  00000000  00031005  2**0
                  CONTENTS, READONLY, DEBUGGING, OCTETS
 19 .comment      00000050  00000000  00000000  0003d407  2**0
                  CONTENTS, READONLY
 20 .debug_frame  000013c4  00000000  00000000  0003d458  2**2
                  CONTENTS, READONLY, DEBUGGING, OCTETS

Disassembly of section .text:

08000198 <__do_global_dtors_aux>:
 8000198:	b510      	push	{r4, lr}
 800019a:	4c05      	ldr	r4, [pc, #20]	; (80001b0 <__do_global_dtors_aux+0x18>)
 800019c:	7823      	ldrb	r3, [r4, #0]
 800019e:	b933      	cbnz	r3, 80001ae <__do_global_dtors_aux+0x16>
 80001a0:	4b04      	ldr	r3, [pc, #16]	; (80001b4 <__do_global_dtors_aux+0x1c>)
 80001a2:	b113      	cbz	r3, 80001aa <__do_global_dtors_aux+0x12>
 80001a4:	4804      	ldr	r0, [pc, #16]	; (80001b8 <__do_global_dtors_aux+0x20>)
 80001a6:	f3af 8000 	nop.w
 80001aa:	2301      	movs	r3, #1
 80001ac:	7023      	strb	r3, [r4, #0]
 80001ae:	bd10      	pop	{r4, pc}
 80001b0:	20000070 	.word	0x20000070
 80001b4:	00000000 	.word	0x00000000
 80001b8:	080030fc 	.word	0x080030fc

080001bc <frame_dummy>:
 80001bc:	b508      	push	{r3, lr}
 80001be:	4b03      	ldr	r3, [pc, #12]	; (80001cc <frame_dummy+0x10>)
 80001c0:	b11b      	cbz	r3, 80001ca <frame_dummy+0xe>
 80001c2:	4903      	ldr	r1, [pc, #12]	; (80001d0 <frame_dummy+0x14>)
 80001c4:	4803      	ldr	r0, [pc, #12]	; (80001d4 <frame_dummy+0x18>)
 80001c6:	f3af 8000 	nop.w
 80001ca:	bd08      	pop	{r3, pc}
 80001cc:	00000000 	.word	0x00000000
 80001d0:	20000074 	.word	0x20000074
 80001d4:	080030fc 	.word	0x080030fc

080001d8 <__aeabi_drsub>:
 80001d8:	f081 4100 	eor.w	r1, r1, #2147483648	; 0x80000000
 80001dc:	e002      	b.n	80001e4 <__adddf3>
 80001de:	bf00      	nop

080001e0 <__aeabi_dsub>:
 80001e0:	f083 4300 	eor.w	r3, r3, #2147483648	; 0x80000000

080001e4 <__adddf3>:
 80001e4:	b530      	push	{r4, r5, lr}
 80001e6:	ea4f 0441 	mov.w	r4, r1, lsl #1
 80001ea:	ea4f 0543 	mov.w	r5, r3, lsl #1
 80001ee:	ea94 0f05 	teq	r4, r5
 80001f2:	bf08      	it	eq
 80001f4:	ea90 0f02 	teqeq	r0, r2
 80001f8:	bf1f      	itttt	ne
 80001fa:	ea54 0c00 	orrsne.w	ip, r4, r0
 80001fe:	ea55 0c02 	orrsne.w	ip, r5, r2
 8000202:	ea7f 5c64 	mvnsne.w	ip, r4, asr #21
 8000206:	ea7f 5c65 	mvnsne.w	ip, r5, asr #21
 800020a:	f000 80e2 	beq.w	80003d2 <__adddf3+0x1ee>
 800020e:	ea4f 5454 	mov.w	r4, r4, lsr #21
 8000212:	ebd4 5555 	rsbs	r5, r4, r5, lsr #21
 8000216:	bfb8      	it	lt
 8000218:	426d      	neglt	r5, r5
 800021a:	dd0c      	ble.n	8000236 <__adddf3+0x52>
 800021c:	442c      	add	r4, r5
 800021e:	ea80 0202 	eor.w	r2, r0, r2
 8000222:	ea81 0303 	eor.w	r3, r1, r3
 8000226:	ea82 0000 	eor.w	r0, r2, r0
 800022a:	ea83 0101 	eor.w	r1, r3, r1
 800022e:	ea80 0202 	eor.w	r2, r0, r2
 8000232:	ea81 0303 	eor.w	r3, r1, r3
 8000236:	2d36      	cmp	r5, #54	; 0x36
 8000238:	bf88      	it	hi
 800023a:	bd30      	pophi	{r4, r5, pc}
 800023c:	f011 4f00 	tst.w	r1, #2147483648	; 0x80000000
 8000240:	ea4f 3101 	mov.w	r1, r1, lsl #12
 8000244:	f44f 1c80 	mov.w	ip, #1048576	; 0x100000
 8000248:	ea4c 3111 	orr.w	r1, ip, r1, lsr #12
 800024c:	d002      	beq.n	8000254 <__adddf3+0x70>
 800024e:	4240      	negs	r0, r0
 8000250:	eb61 0141 	sbc.w	r1, r1, r1, lsl #1
 8000254:	f013 4f00 	tst.w	r3, #2147483648	; 0x80000000
 8000258:	ea4f 3303 	mov.w	r3, r3, lsl #12
 800025c:	ea4c 3313 	orr.w	r3, ip, r3, lsr #12
 8000260:	d002      	beq.n	8000268 <__adddf3+0x84>
 8000262:	4252      	negs	r2, r2
 8000264:	eb63 0343 	sbc.w	r3, r3, r3, lsl #1
 8000268:	ea94 0f05 	teq	r4, r5
 800026c:	f000 80a7 	beq.w	80003be <__adddf3+0x1da>
 8000270:	f1a4 0401 	sub.w	r4, r4, #1
 8000274:	f1d5 0e20 	rsbs	lr, r5, #32
 8000278:	db0d      	blt.n	8000296 <__adddf3+0xb2>
 800027a:	fa02 fc0e 	lsl.w	ip, r2, lr
 800027e:	fa22 f205 	lsr.w	r2, r2, r5
 8000282:	1880      	adds	r0, r0, r2
 8000284:	f141 0100 	adc.w	r1, r1, #0
 8000288:	fa03 f20e 	lsl.w	r2, r3, lr
 800028c:	1880      	adds	r0, r0, r2
 800028e:	fa43 f305 	asr.w	r3, r3, r5
 8000292:	4159      	adcs	r1, r3
 8000294:	e00e      	b.n	80002b4 <__adddf3+0xd0>
 8000296:	f1a5 0520 	sub.w	r5, r5, #32
 800029a:	f10e 0e20 	add.w	lr, lr, #32
 800029e:	2a01      	cmp	r2, #1
 80002a0:	fa03 fc0e 	lsl.w	ip, r3, lr
 80002a4:	bf28      	it	cs
 80002a6:	f04c 0c02 	orrcs.w	ip, ip, #2
 80002aa:	fa43 f305 	asr.w	r3, r3, r5
 80002ae:	18c0      	adds	r0, r0, r3
 80002b0:	eb51 71e3 	adcs.w	r1, r1, r3, asr #31
 80002b4:	f001 4500 	and.w	r5, r1, #2147483648	; 0x80000000
 80002b8:	d507      	bpl.n	80002ca <__adddf3+0xe6>
 80002ba:	f04f 0e00 	mov.w	lr, #0
 80002be:	f1dc 0c00 	rsbs	ip, ip, #0
 80002c2:	eb7e 0000 	sbcs.w	r0, lr, r0
 80002c6:	eb6e 0101 	sbc.w	r1, lr, r1
 80002ca:	f5b1 1f80 	cmp.w	r1, #1048576	; 0x100000
 80002ce:	d31b      	bcc.n	8000308 <__adddf3+0x124>
 80002d0:	f5b1 1f00 	cmp.w	r1, #2097152	; 0x200000
 80002d4:	d30c      	bcc.n	80002f0 <__adddf3+0x10c>
 80002d6:	0849      	lsrs	r1, r1, #1
 80002d8:	ea5f 0030 	movs.w	r0, r0, rrx
 80002dc:	ea4f 0c3c 	mov.w	ip, ip, rrx
 80002e0:	f104 0401 	add.w	r4, r4, #1
 80002e4:	ea4f 5244 	mov.w	r2, r4, lsl #21
 80002e8:	f512 0f80 	cmn.w	r2, #4194304	; 0x400000
 80002ec:	f080 809a 	bcs.w	8000424 <__adddf3+0x240>
 80002f0:	f1bc 4f00 	cmp.w	ip, #2147483648	; 0x80000000
 80002f4:	bf08      	it	eq
 80002f6:	ea5f 0c50 	movseq.w	ip, r0, lsr #1
 80002fa:	f150 0000 	adcs.w	r0, r0, #0
 80002fe:	eb41 5104 	adc.w	r1, r1, r4, lsl #20
 8000302:	ea41 0105 	orr.w	r1, r1, r5
 8000306:	bd30      	pop	{r4, r5, pc}
 8000308:	ea5f 0c4c 	movs.w	ip, ip, lsl #1
 800030c:	4140      	adcs	r0, r0
 800030e:	eb41 0101 	adc.w	r1, r1, r1
 8000312:	3c01      	subs	r4, #1
 8000314:	bf28      	it	cs
 8000316:	f5b1 1f80 	cmpcs.w	r1, #1048576	; 0x100000
 800031a:	d2e9      	bcs.n	80002f0 <__adddf3+0x10c>
 800031c:	f091 0f00 	teq	r1, #0
 8000320:	bf04      	itt	eq
 8000322:	4601      	moveq	r1, r0
 8000324:	2000      	moveq	r0, #0
 8000326:	fab1 f381 	clz	r3, r1
 800032a:	bf08      	it	eq
 800032c:	3320      	addeq	r3, #32
 800032e:	f1a3 030b 	sub.w	r3, r3, #11
 8000332:	f1b3 0220 	subs.w	r2, r3, #32
 8000336:	da0c      	bge.n	8000352 <__adddf3+0x16e>
 8000338:	320c      	adds	r2, #12
 800033a:	dd08      	ble.n	800034e <__adddf3+0x16a>
 800033c:	f102 0c14 	add.w	ip, r2, #20
 8000340:	f1c2 020c 	rsb	r2, r2, #12
 8000344:	fa01 f00c 	lsl.w	r0, r1, ip
 8000348:	fa21 f102 	lsr.w	r1, r1, r2
 800034c:	e00c      	b.n	8000368 <__adddf3+0x184>
 800034e:	f102 0214 	add.w	r2, r2, #20
 8000352:	bfd8      	it	le
 8000354:	f1c2 0c20 	rsble	ip, r2, #32
 8000358:	fa01 f102 	lsl.w	r1, r1, r2
 800035c:	fa20 fc0c 	lsr.w	ip, r0, ip
 8000360:	bfdc      	itt	le
 8000362:	ea41 010c 	orrle.w	r1, r1, ip
 8000366:	4090      	lslle	r0, r2
 8000368:	1ae4      	subs	r4, r4, r3
 800036a:	bfa2      	ittt	ge
 800036c:	eb01 5104 	addge.w	r1, r1, r4, lsl #20
 8000370:	4329      	orrge	r1, r5
 8000372:	bd30      	popge	{r4, r5, pc}
 8000374:	ea6f 0404 	mvn.w	r4, r4
 8000378:	3c1f      	subs	r4, #31
 800037a:	da1c      	bge.n	80003b6 <__adddf3+0x1d2>
 800037c:	340c      	adds	r4, #12
 800037e:	dc0e      	bgt.n	800039e <__adddf3+0x1ba>
 8000380:	f104 0414 	add.w	r4, r4, #20
 8000384:	f1c4 0220 	rsb	r2, r4, #32
 8000388:	fa20 f004 	lsr.w	r0, r0, r4
 800038c:	fa01 f302 	lsl.w	r3, r1, r2
 8000390:	ea40 0003 	orr.w	r0, r0, r3
 8000394:	fa21 f304 	lsr.w	r3, r1, r4
 8000398:	ea45 0103 	orr.w	r1, r5, r3
 800039c:	bd30      	pop	{r4, r5, pc}
 800039e:	f1c4 040c 	rsb	r4, r4, #12
 80003a2:	f1c4 0220 	rsb	r2, r4, #32
 80003a6:	fa20 f002 	lsr.w	r0, r0, r2
 80003aa:	fa01 f304 	lsl.w	r3, r1, r4
 80003ae:	ea40 0003 	orr.w	r0, r0, r3
 80003b2:	4629      	mov	r1, r5
 80003b4:	bd30      	pop	{r4, r5, pc}
 80003b6:	fa21 f004 	lsr.w	r0, r1, r4
 80003ba:	4629      	mov	r1, r5
 80003bc:	bd30      	pop	{r4, r5, pc}
 80003be:	f094 0f00 	teq	r4, #0
 80003c2:	f483 1380 	eor.w	r3, r3, #1048576	; 0x100000
 80003c6:	bf06      	itte	eq
 80003c8:	f481 1180 	eoreq.w	r1, r1, #1048576	; 0x100000
 80003cc:	3401      	addeq	r4, #1
 80003ce:	3d01      	subne	r5, #1
 80003d0:	e74e      	b.n	8000270 <__adddf3+0x8c>
 80003d2:	ea7f 5c64 	mvns.w	ip, r4, asr #21
 80003d6:	bf18      	it	ne
 80003d8:	ea7f 5c65 	mvnsne.w	ip, r5, asr #21
 80003dc:	d029      	beq.n	8000432 <__adddf3+0x24e>
 80003de:	ea94 0f05 	teq	r4, r5
 80003e2:	bf08      	it	eq
 80003e4:	ea90 0f02 	teqeq	r0, r2
 80003e8:	d005      	beq.n	80003f6 <__adddf3+0x212>
 80003ea:	ea54 0c00 	orrs.w	ip, r4, r0
 80003ee:	bf04      	itt	eq
 80003f0:	4619      	moveq	r1, r3
 80003f2:	4610      	moveq	r0, r2
 80003f4:	bd30      	pop	{r4, r5, pc}
 80003f6:	ea91 0f03 	teq	r1, r3
 80003fa:	bf1e      	ittt	ne
 80003fc:	2100      	movne	r1, #0
 80003fe:	2000      	movne	r0, #0
 8000400:	bd30      	popne	{r4, r5, pc}
 8000402:	ea5f 5c54 	movs.w	ip, r4, lsr #21
 8000406:	d105      	bne.n	8000414 <__adddf3+0x230>
 8000408:	0040      	lsls	r0, r0, #1
 800040a:	4149      	adcs	r1, r1
 800040c:	bf28      	it	cs
 800040e:	f041 4100 	orrcs.w	r1, r1, #2147483648	; 0x80000000
 8000412:	bd30      	pop	{r4, r5, pc}
 8000414:	f514 0480 	adds.w	r4, r4, #4194304	; 0x400000
 8000418:	bf3c      	itt	cc
 800041a:	f501 1180 	addcc.w	r1, r1, #1048576	; 0x100000
 800041e:	bd30      	popcc	{r4, r5, pc}
 8000420:	f001 4500 	and.w	r5, r1, #2147483648	; 0x80000000
 8000424:	f045 41fe 	orr.w	r1, r5, #2130706432	; 0x7f000000
 8000428:	f441 0170 	orr.w	r1, r1, #15728640	; 0xf00000
 800042c:	f04f 0000 	mov.w	r0, #0
 8000430:	bd30      	pop	{r4, r5, pc}
 8000432:	ea7f 5c64 	mvns.w	ip, r4, asr #21
 8000436:	bf1a      	itte	ne
 8000438:	4619      	movne	r1, r3
 800043a:	4610      	movne	r0, r2
 800043c:	ea7f 5c65 	mvnseq.w	ip, r5, asr #21
 8000440:	bf1c      	itt	ne
 8000442:	460b      	movne	r3, r1
 8000444:	4602      	movne	r2, r0
 8000446:	ea50 3401 	orrs.w	r4, r0, r1, lsl #12
 800044a:	bf06      	itte	eq
 800044c:	ea52 3503 	orrseq.w	r5, r2, r3, lsl #12
 8000450:	ea91 0f03 	teqeq	r1, r3
 8000454:	f441 2100 	orrne.w	r1, r1, #524288	; 0x80000
 8000458:	bd30      	pop	{r4, r5, pc}
 800045a:	bf00      	nop

0800045c <__aeabi_ui2d>:
 800045c:	f090 0f00 	teq	r0, #0
 8000460:	bf04      	itt	eq
 8000462:	2100      	moveq	r1, #0
 8000464:	4770      	bxeq	lr
 8000466:	b530      	push	{r4, r5, lr}
 8000468:	f44f 6480 	mov.w	r4, #1024	; 0x400
 800046c:	f104 0432 	add.w	r4, r4, #50	; 0x32
 8000470:	f04f 0500 	mov.w	r5, #0
 8000474:	f04f 0100 	mov.w	r1, #0
 8000478:	e750      	b.n	800031c <__adddf3+0x138>
 800047a:	bf00      	nop

0800047c <__aeabi_i2d>:
 800047c:	f090 0f00 	teq	r0, #0
 8000480:	bf04      	itt	eq
 8000482:	2100      	moveq	r1, #0
 8000484:	4770      	bxeq	lr
 8000486:	b530      	push	{r4, r5, lr}
 8000488:	f44f 6480 	mov.w	r4, #1024	; 0x400
 800048c:	f104 0432 	add.w	r4, r4, #50	; 0x32
 8000490:	f010 4500 	ands.w	r5, r0, #2147483648	; 0x80000000
 8000494:	bf48      	it	mi
 8000496:	4240      	negmi	r0, r0
 8000498:	f04f 0100 	mov.w	r1, #0
 800049c:	e73e      	b.n	800031c <__adddf3+0x138>
 800049e:	bf00      	nop

080004a0 <__aeabi_f2d>:
 80004a0:	0042      	lsls	r2, r0, #1
 80004a2:	ea4f 01e2 	mov.w	r1, r2, asr #3
 80004a6:	ea4f 0131 	mov.w	r1, r1, rrx
 80004aa:	ea4f 7002 	mov.w	r0, r2, lsl #28
 80004ae:	bf1f      	itttt	ne
 80004b0:	f012 437f 	andsne.w	r3, r2, #4278190080	; 0xff000000
 80004b4:	f093 4f7f 	teqne	r3, #4278190080	; 0xff000000
 80004b8:	f081 5160 	eorne.w	r1, r1, #939524096	; 0x38000000
 80004bc:	4770      	bxne	lr
 80004be:	f032 427f 	bics.w	r2, r2, #4278190080	; 0xff000000
 80004c2:	bf08      	it	eq
 80004c4:	4770      	bxeq	lr
 80004c6:	f093 4f7f 	teq	r3, #4278190080	; 0xff000000
 80004ca:	bf04      	itt	eq
 80004cc:	f441 2100 	orreq.w	r1, r1, #524288	; 0x80000
 80004d0:	4770      	bxeq	lr
 80004d2:	b530      	push	{r4, r5, lr}
 80004d4:	f44f 7460 	mov.w	r4, #896	; 0x380
 80004d8:	f001 4500 	and.w	r5, r1, #2147483648	; 0x80000000
 80004dc:	f021 4100 	bic.w	r1, r1, #2147483648	; 0x80000000
 80004e0:	e71c      	b.n	800031c <__adddf3+0x138>
 80004e2:	bf00      	nop

080004e4 <__aeabi_ul2d>:
 80004e4:	ea50 0201 	orrs.w	r2, r0, r1
 80004e8:	bf08      	it	eq
 80004ea:	4770      	bxeq	lr
 80004ec:	b530      	push	{r4, r5, lr}
 80004ee:	f04f 0500 	mov.w	r5, #0
 80004f2:	e00a      	b.n	800050a <__aeabi_l2d+0x16>

080004f4 <__aeabi_l2d>:
 80004f4:	ea50 0201 	orrs.w	r2, r0, r1
 80004f8:	bf08      	it	eq
 80004fa:	4770      	bxeq	lr
 80004fc:	b530      	push	{r4, r5, lr}
 80004fe:	f011 4500 	ands.w	r5, r1, #2147483648	; 0x80000000
 8000502:	d502      	bpl.n	800050a <__aeabi_l2d+0x16>
 8000504:	4240      	negs	r0, r0
 8000506:	eb61 0141 	sbc.w	r1, r1, r1, lsl #1
 800050a:	f44f 6480 	mov.w	r4, #1024	; 0x400
 800050e:	f104 0432 	add.w	r4, r4, #50	; 0x32
 8000512:	ea5f 5c91 	movs.w	ip, r1, lsr #22
 8000516:	f43f aed8 	beq.w	80002ca <__adddf3+0xe6>
 800051a:	f04f 0203 	mov.w	r2, #3
 800051e:	ea5f 0cdc 	movs.w	ip, ip, lsr #3
 8000522:	bf18      	it	ne
 8000524:	3203      	addne	r2, #3
 8000526:	ea5f 0cdc 	movs.w	ip, ip, lsr #3
 800052a:	bf18      	it	ne
 800052c:	3203      	addne	r2, #3
 800052e:	eb02 02dc 	add.w	r2, r2, ip, lsr #3
 8000532:	f1c2 0320 	rsb	r3, r2, #32
 8000536:	fa00 fc03 	lsl.w	ip, r0, r3
 800053a:	fa20 f002 	lsr.w	r0, r0, r2
 800053e:	fa01 fe03 	lsl.w	lr, r1, r3
 8000542:	ea40 000e 	orr.w	r0, r0, lr
 8000546:	fa21 f102 	lsr.w	r1, r1, r2
 800054a:	4414      	add	r4, r2
 800054c:	e6bd      	b.n	80002ca <__adddf3+0xe6>
 800054e:	bf00      	nop

08000550 <__aeabi_dmul>:
 8000550:	b570      	push	{r4, r5, r6, lr}
 8000552:	f04f 0cff 	mov.w	ip, #255	; 0xff
 8000556:	f44c 6ce0 	orr.w	ip, ip, #1792	; 0x700
 800055a:	ea1c 5411 	ands.w	r4, ip, r1, lsr #20
 800055e:	bf1d      	ittte	ne
 8000560:	ea1c 5513 	andsne.w	r5, ip, r3, lsr #20
 8000564:	ea94 0f0c 	teqne	r4, ip
 8000568:	ea95 0f0c 	teqne	r5, ip
 800056c:	f000 f8de 	bleq	800072c <__aeabi_dmul+0x1dc>
 8000570:	442c      	add	r4, r5
 8000572:	ea81 0603 	eor.w	r6, r1, r3
 8000576:	ea21 514c 	bic.w	r1, r1, ip, lsl #21
 800057a:	ea23 534c 	bic.w	r3, r3, ip, lsl #21
 800057e:	ea50 3501 	orrs.w	r5, r0, r1, lsl #12
 8000582:	bf18      	it	ne
 8000584:	ea52 3503 	orrsne.w	r5, r2, r3, lsl #12
 8000588:	f441 1180 	orr.w	r1, r1, #1048576	; 0x100000
 800058c:	f443 1380 	orr.w	r3, r3, #1048576	; 0x100000
 8000590:	d038      	beq.n	8000604 <__aeabi_dmul+0xb4>
 8000592:	fba0 ce02 	umull	ip, lr, r0, r2
 8000596:	f04f 0500 	mov.w	r5, #0
 800059a:	fbe1 e502 	umlal	lr, r5, r1, r2
 800059e:	f006 4200 	and.w	r2, r6, #2147483648	; 0x80000000
 80005a2:	fbe0 e503 	umlal	lr, r5, r0, r3
 80005a6:	f04f 0600 	mov.w	r6, #0
 80005aa:	fbe1 5603 	umlal	r5, r6, r1, r3
 80005ae:	f09c 0f00 	teq	ip, #0
 80005b2:	bf18      	it	ne
 80005b4:	f04e 0e01 	orrne.w	lr, lr, #1
 80005b8:	f1a4 04ff 	sub.w	r4, r4, #255	; 0xff
 80005bc:	f5b6 7f00 	cmp.w	r6, #512	; 0x200
 80005c0:	f564 7440 	sbc.w	r4, r4, #768	; 0x300
 80005c4:	d204      	bcs.n	80005d0 <__aeabi_dmul+0x80>
 80005c6:	ea5f 0e4e 	movs.w	lr, lr, lsl #1
 80005ca:	416d      	adcs	r5, r5
 80005cc:	eb46 0606 	adc.w	r6, r6, r6
 80005d0:	ea42 21c6 	orr.w	r1, r2, r6, lsl #11
 80005d4:	ea41 5155 	orr.w	r1, r1, r5, lsr #21
 80005d8:	ea4f 20c5 	mov.w	r0, r5, lsl #11
 80005dc:	ea40 505e 	orr.w	r0, r0, lr, lsr #21
 80005e0:	ea4f 2ece 	mov.w	lr, lr, lsl #11
 80005e4:	f1b4 0cfd 	subs.w	ip, r4, #253	; 0xfd
 80005e8:	bf88      	it	hi
 80005ea:	f5bc 6fe0 	cmphi.w	ip, #1792	; 0x700
 80005ee:	d81e      	bhi.n	800062e <__aeabi_dmul+0xde>
 80005f0:	f1be 4f00 	cmp.w	lr, #2147483648	; 0x80000000
 80005f4:	bf08      	it	eq
 80005f6:	ea5f 0e50 	movseq.w	lr, r0, lsr #1
 80005fa:	f150 0000 	adcs.w	r0, r0, #0
 80005fe:	eb41 5104 	adc.w	r1, r1, r4, lsl #20
 8000602:	bd70      	pop	{r4, r5, r6, pc}
 8000604:	f006 4600 	and.w	r6, r6, #2147483648	; 0x80000000
 8000608:	ea46 0101 	orr.w	r1, r6, r1
 800060c:	ea40 0002 	orr.w	r0, r0, r2
 8000610:	ea81 0103 	eor.w	r1, r1, r3
 8000614:	ebb4 045c 	subs.w	r4, r4, ip, lsr #1
 8000618:	bfc2      	ittt	gt
 800061a:	ebd4 050c 	rsbsgt	r5, r4, ip
 800061e:	ea41 5104 	orrgt.w	r1, r1, r4, lsl #20
 8000622:	bd70      	popgt	{r4, r5, r6, pc}
 8000624:	f441 1180 	orr.w	r1, r1, #1048576	; 0x100000
 8000628:	f04f 0e00 	mov.w	lr, #0
 800062c:	3c01      	subs	r4, #1
 800062e:	f300 80ab 	bgt.w	8000788 <__aeabi_dmul+0x238>
 8000632:	f114 0f36 	cmn.w	r4, #54	; 0x36
 8000636:	bfde      	ittt	le
 8000638:	2000      	movle	r0, #0
 800063a:	f001 4100 	andle.w	r1, r1, #2147483648	; 0x80000000
 800063e:	bd70      	pople	{r4, r5, r6, pc}
 8000640:	f1c4 0400 	rsb	r4, r4, #0
 8000644:	3c20      	subs	r4, #32
 8000646:	da35      	bge.n	80006b4 <__aeabi_dmul+0x164>
 8000648:	340c      	adds	r4, #12
 800064a:	dc1b      	bgt.n	8000684 <__aeabi_dmul+0x134>
 800064c:	f104 0414 	add.w	r4, r4, #20
 8000650:	f1c4 0520 	rsb	r5, r4, #32
 8000654:	fa00 f305 	lsl.w	r3, r0, r5
 8000658:	fa20 f004 	lsr.w	r0, r0, r4
 800065c:	fa01 f205 	lsl.w	r2, r1, r5
 8000660:	ea40 0002 	orr.w	r0, r0, r2
 8000664:	f001 4200 	and.w	r2, r1, #2147483648	; 0x80000000
 8000668:	f021 4100 	bic.w	r1, r1, #2147483648	; 0x80000000
 800066c:	eb10 70d3 	adds.w	r0, r0, r3, lsr #31
 8000670:	fa21 f604 	lsr.w	r6, r1, r4
 8000674:	eb42 0106 	adc.w	r1, r2, r6
 8000678:	ea5e 0e43 	orrs.w	lr, lr, r3, lsl #1
 800067c:	bf08      	it	eq
 800067e:	ea20 70d3 	biceq.w	r0, r0, r3, lsr #31
 8000682:	bd70      	pop	{r4, r5, r6, pc}
 8000684:	f1c4 040c 	rsb	r4, r4, #12
 8000688:	f1c4 0520 	rsb	r5, r4, #32
 800068c:	fa00 f304 	lsl.w	r3, r0, r4
 8000690:	fa20 f005 	lsr.w	r0, r0, r5
 8000694:	fa01 f204 	lsl.w	r2, r1, r4
 8000698:	ea40 0002 	orr.w	r0, r0, r2
 800069c:	f001 4100 	and.w	r1, r1, #2147483648	; 0x80000000
 80006a0:	eb10 70d3 	adds.w	r0, r0, r3, lsr #31
 80006a4:	f141 0100 	adc.w	r1, r1, #0
 80006a8:	ea5e 0e43 	orrs.w	lr, lr, r3, lsl #1
 80006ac:	bf08      	it	eq
 80006ae:	ea20 70d3 	biceq.w	r0, r0, r3, lsr #31
 80006b2:	bd70      	pop	{r4, r5, r6, pc}
 80006b4:	f1c4 0520 	rsb	r5, r4, #32
 80006b8:	fa00 f205 	lsl.w	r2, r0, r5
 80006bc:	ea4e 0e02 	orr.w	lr, lr, r2
 80006c0:	fa20 f304 	lsr.w	r3, r0, r4
 80006c4:	fa01 f205 	lsl.w	r2, r1, r5
 80006c8:	ea43 0302 	orr.w	r3, r3, r2
 80006cc:	fa21 f004 	lsr.w	r0, r1, r4
 80006d0:	f001 4100 	and.w	r1, r1, #2147483648	; 0x80000000
 80006d4:	fa21 f204 	lsr.w	r2, r1, r4
 80006d8:	ea20 0002 	bic.w	r0, r0, r2
 80006dc:	eb00 70d3 	add.w	r0, r0, r3, lsr #31
 80006e0:	ea5e 0e43 	orrs.w	lr, lr, r3, lsl #1
 80006e4:	bf08      	it	eq
 80006e6:	ea20 70d3 	biceq.w	r0, r0, r3, lsr #31
 80006ea:	bd70      	pop	{r4, r5, r6, pc}
 80006ec:	f094 0f00 	teq	r4, #0
 80006f0:	d10f      	bne.n	8000712 <__aeabi_dmul+0x1c2>
 80006f2:	f001 4600 	and.w	r6, r1, #2147483648	; 0x80000000
 80006f6:	0040      	lsls	r0, r0, #1
 80006f8:	eb41 0101 	adc.w	r1, r1, r1
 80006fc:	f411 1f80 	tst.w	r1, #1048576	; 0x100000
 8000700:	bf08      	it	eq
 8000702:	3c01      	subeq	r4, #1
 8000704:	d0f7      	beq.n	80006f6 <__aeabi_dmul+0x1a6>
 8000706:	ea41 0106 	orr.w	r1, r1, r6
 800070a:	f095 0f00 	teq	r5, #0
 800070e:	bf18      	it	ne
 8000710:	4770      	bxne	lr
 8000712:	f003 4600 	and.w	r6, r3, #2147483648	; 0x80000000
 8000716:	0052      	lsls	r2, r2, #1
 8000718:	eb43 0303 	adc.w	r3, r3, r3
 800071c:	f413 1f80 	tst.w	r3, #1048576	; 0x100000
 8000720:	bf08      	it	eq
 8000722:	3d01      	subeq	r5, #1
 8000724:	d0f7      	beq.n	8000716 <__aeabi_dmul+0x1c6>
 8000726:	ea43 0306 	orr.w	r3, r3, r6
 800072a:	4770      	bx	lr
 800072c:	ea94 0f0c 	teq	r4, ip
 8000730:	ea0c 5513 	and.w	r5, ip, r3, lsr #20
 8000734:	bf18      	it	ne
 8000736:	ea95 0f0c 	teqne	r5, ip
 800073a:	d00c      	beq.n	8000756 <__aeabi_dmul+0x206>
 800073c:	ea50 0641 	orrs.w	r6, r0, r1, lsl #1
 8000740:	bf18      	it	ne
 8000742:	ea52 0643 	orrsne.w	r6, r2, r3, lsl #1
 8000746:	d1d1      	bne.n	80006ec <__aeabi_dmul+0x19c>
 8000748:	ea81 0103 	eor.w	r1, r1, r3
 800074c:	f001 4100 	and.w	r1, r1, #2147483648	; 0x80000000
 8000750:	f04f 0000 	mov.w	r0, #0
 8000754:	bd70      	pop	{r4, r5, r6, pc}
 8000756:	ea50 0641 	orrs.w	r6, r0, r1, lsl #1
 800075a:	bf06      	itte	eq
 800075c:	4610      	moveq	r0, r2
 800075e:	4619      	moveq	r1, r3
 8000760:	ea52 0643 	orrsne.w	r6, r2, r3, lsl #1
 8000764:	d019      	beq.n	800079a <__aeabi_dmul+0x24a>
 8000766:	ea94 0f0c 	teq	r4, ip
 800076a:	d102      	bne.n	8000772 <__aeabi_dmul+0x222>
 800076c:	ea50 3601 	orrs.w	r6, r0, r1, lsl #12
 8000770:	d113      	bne.n	800079a <__aeabi_dmul+0x24a>
 8000772:	ea95 0f0c 	teq	r5, ip
 8000776:	d105      	bne.n	8000784 <__aeabi_dmul+0x234>
 8000778:	ea52 3603 	orrs.w	r6, r2, r3, lsl #12
 800077c:	bf1c      	itt	ne
 800077e:	4610      	movne	r0, r2
 8000780:	4619      	movne	r1, r3
 8000782:	d10a      	bne.n	800079a <__aeabi_dmul+0x24a>
 8000784:	ea81 0103 	eor.w	r1, r1, r3
 8000788:	f001 4100 	and.w	r1, r1, #2147483648	; 0x80000000
 800078c:	f041 41fe 	orr.w	r1, r1, #2130706432	; 0x7f000000
 8000790:	f441 0170 	orr.w	r1, r1, #15728640	; 0xf00000
 8000794:	f04f 0000 	mov.w	r0, #0
 8000798:	bd70      	pop	{r4, r5, r6, pc}
 800079a:	f041 41fe 	orr.w	r1, r1, #2130706432	; 0x7f000000
 800079e:	f441 0178 	orr.w	r1, r1, #16252928	; 0xf80000
 80007a2:	bd70      	pop	{r4, r5, r6, pc}

080007a4 <__aeabi_ddiv>:
 80007a4:	b570      	push	{r4, r5, r6, lr}
 80007a6:	f04f 0cff 	mov.w	ip, #255	; 0xff
 80007aa:	f44c 6ce0 	orr.w	ip, ip, #1792	; 0x700
 80007ae:	ea1c 5411 	ands.w	r4, ip, r1, lsr #20
 80007b2:	bf1d      	ittte	ne
 80007b4:	ea1c 5513 	andsne.w	r5, ip, r3, lsr #20
 80007b8:	ea94 0f0c 	teqne	r4, ip
 80007bc:	ea95 0f0c 	teqne	r5, ip
 80007c0:	f000 f8a7 	bleq	8000912 <__aeabi_ddiv+0x16e>
 80007c4:	eba4 0405 	sub.w	r4, r4, r5
 80007c8:	ea81 0e03 	eor.w	lr, r1, r3
 80007cc:	ea52 3503 	orrs.w	r5, r2, r3, lsl #12
 80007d0:	ea4f 3101 	mov.w	r1, r1, lsl #12
 80007d4:	f000 8088 	beq.w	80008e8 <__aeabi_ddiv+0x144>
 80007d8:	ea4f 3303 	mov.w	r3, r3, lsl #12
 80007dc:	f04f 5580 	mov.w	r5, #268435456	; 0x10000000
 80007e0:	ea45 1313 	orr.w	r3, r5, r3, lsr #4
 80007e4:	ea43 6312 	orr.w	r3, r3, r2, lsr #24
 80007e8:	ea4f 2202 	mov.w	r2, r2, lsl #8
 80007ec:	ea45 1511 	orr.w	r5, r5, r1, lsr #4
 80007f0:	ea45 6510 	orr.w	r5, r5, r0, lsr #24
 80007f4:	ea4f 2600 	mov.w	r6, r0, lsl #8
 80007f8:	f00e 4100 	and.w	r1, lr, #2147483648	; 0x80000000
 80007fc:	429d      	cmp	r5, r3
 80007fe:	bf08      	it	eq
 8000800:	4296      	cmpeq	r6, r2
 8000802:	f144 04fd 	adc.w	r4, r4, #253	; 0xfd
 8000806:	f504 7440 	add.w	r4, r4, #768	; 0x300
 800080a:	d202      	bcs.n	8000812 <__aeabi_ddiv+0x6e>
 800080c:	085b      	lsrs	r3, r3, #1
 800080e:	ea4f 0232 	mov.w	r2, r2, rrx
 8000812:	1ab6      	subs	r6, r6, r2
 8000814:	eb65 0503 	sbc.w	r5, r5, r3
 8000818:	085b      	lsrs	r3, r3, #1
 800081a:	ea4f 0232 	mov.w	r2, r2, rrx
 800081e:	f44f 1080 	mov.w	r0, #1048576	; 0x100000
 8000822:	f44f 2c00 	mov.w	ip, #524288	; 0x80000
 8000826:	ebb6 0e02 	subs.w	lr, r6, r2
 800082a:	eb75 0e03 	sbcs.w	lr, r5, r3
 800082e:	bf22      	ittt	cs
 8000830:	1ab6      	subcs	r6, r6, r2
 8000832:	4675      	movcs	r5, lr
 8000834:	ea40 000c 	orrcs.w	r0, r0, ip
 8000838:	085b      	lsrs	r3, r3, #1
 800083a:	ea4f 0232 	mov.w	r2, r2, rrx
 800083e:	ebb6 0e02 	subs.w	lr, r6, r2
 8000842:	eb75 0e03 	sbcs.w	lr, r5, r3
 8000846:	bf22      	ittt	cs
 8000848:	1ab6      	subcs	r6, r6, r2
 800084a:	4675      	movcs	r5, lr
 800084c:	ea40 005c 	orrcs.w	r0, r0, ip, lsr #1
 8000850:	085b      	lsrs	r3, r3, #1
 8000852:	ea4f 0232 	mov.w	r2, r2, rrx
 8000856:	ebb6 0e02 	subs.w	lr, r6, r2
 800085a:	eb75 0e03 	sbcs.w	lr, r5, r3
 800085e:	bf22      	ittt	cs
 8000860:	1ab6      	subcs	r6, r6, r2
 8000862:	4675      	movcs	r5, lr
 8000864:	ea40 009c 	orrcs.w	r0, r0, ip, lsr #2
 8000868:	085b      	lsrs	r3, r3, #1
 800086a:	ea4f 0232 	mov.w	r2, r2, rrx
 800086e:	ebb6 0e02 	subs.w	lr, r6, r2
 8000872:	eb75 0e03 	sbcs.w	lr, r5, r3
 8000876:	bf22      	ittt	cs
 8000878:	1ab6      	subcs	r6, r6, r2
 800087a:	4675      	movcs	r5, lr
 800087c:	ea40 00dc 	orrcs.w	r0, r0, ip, lsr #3
 8000880:	ea55 0e06 	orrs.w	lr, r5, r6
 8000884:	d018      	beq.n	80008b8 <__aeabi_ddiv+0x114>
 8000886:	ea4f 1505 	mov.w	r5, r5, lsl #4
 800088a:	ea45 7516 	orr.w	r5, r5, r6, lsr #28
 800088e:	ea4f 1606 	mov.w	r6, r6, lsl #4
 8000892:	ea4f 03c3 	mov.w	r3, r3, lsl #3
 8000896:	ea43 7352 	orr.w	r3, r3, r2, lsr #29
 800089a:	ea4f 02c2 	mov.w	r2, r2, lsl #3
 800089e:	ea5f 1c1c 	movs.w	ip, ip, lsr #4
 80008a2:	d1c0      	bne.n	8000826 <__aeabi_ddiv+0x82>
 80008a4:	f411 1f80 	tst.w	r1, #1048576	; 0x100000
 80008a8:	d10b      	bne.n	80008c2 <__aeabi_ddiv+0x11e>
 80008aa:	ea41 0100 	orr.w	r1, r1, r0
 80008ae:	f04f 0000 	mov.w	r0, #0
 80008b2:	f04f 4c00 	mov.w	ip, #2147483648	; 0x80000000
 80008b6:	e7b6      	b.n	8000826 <__aeabi_ddiv+0x82>
 80008b8:	f411 1f80 	tst.w	r1, #1048576	; 0x100000
 80008bc:	bf04      	itt	eq
 80008be:	4301      	orreq	r1, r0
 80008c0:	2000      	moveq	r0, #0
 80008c2:	f1b4 0cfd 	subs.w	ip, r4, #253	; 0xfd
 80008c6:	bf88      	it	hi
 80008c8:	f5bc 6fe0 	cmphi.w	ip, #1792	; 0x700
 80008cc:	f63f aeaf 	bhi.w	800062e <__aeabi_dmul+0xde>
 80008d0:	ebb5 0c03 	subs.w	ip, r5, r3
 80008d4:	bf04      	itt	eq
 80008d6:	ebb6 0c02 	subseq.w	ip, r6, r2
 80008da:	ea5f 0c50 	movseq.w	ip, r0, lsr #1
 80008de:	f150 0000 	adcs.w	r0, r0, #0
 80008e2:	eb41 5104 	adc.w	r1, r1, r4, lsl #20
 80008e6:	bd70      	pop	{r4, r5, r6, pc}
 80008e8:	f00e 4e00 	and.w	lr, lr, #2147483648	; 0x80000000
 80008ec:	ea4e 3111 	orr.w	r1, lr, r1, lsr #12
 80008f0:	eb14 045c 	adds.w	r4, r4, ip, lsr #1
 80008f4:	bfc2      	ittt	gt
 80008f6:	ebd4 050c 	rsbsgt	r5, r4, ip
 80008fa:	ea41 5104 	orrgt.w	r1, r1, r4, lsl #20
 80008fe:	bd70      	popgt	{r4, r5, r6, pc}
 8000900:	f441 1180 	orr.w	r1, r1, #1048576	; 0x100000
 8000904:	f04f 0e00 	mov.w	lr, #0
 8000908:	3c01      	subs	r4, #1
 800090a:	e690      	b.n	800062e <__aeabi_dmul+0xde>
 800090c:	ea45 0e06 	orr.w	lr, r5, r6
 8000910:	e68d      	b.n	800062e <__aeabi_dmul+0xde>
 8000912:	ea0c 5513 	and.w	r5, ip, r3, lsr #20
 8000916:	ea94 0f0c 	teq	r4, ip
 800091a:	bf08      	it	eq
 800091c:	ea95 0f0c 	teqeq	r5, ip
 8000920:	f43f af3b 	beq.w	800079a <__aeabi_dmul+0x24a>
 8000924:	ea94 0f0c 	teq	r4, ip
 8000928:	d10a      	bne.n	8000940 <__aeabi_ddiv+0x19c>
 800092a:	ea50 3401 	orrs.w	r4, r0, r1, lsl #12
 800092e:	f47f af34 	bne.w	800079a <__aeabi_dmul+0x24a>
 8000932:	ea95 0f0c 	teq	r5, ip
 8000936:	f47f af25 	bne.w	8000784 <__aeabi_dmul+0x234>
 800093a:	4610      	mov	r0, r2
 800093c:	4619      	mov	r1, r3
 800093e:	e72c      	b.n	800079a <__aeabi_dmul+0x24a>
 8000940:	ea95 0f0c 	teq	r5, ip
 8000944:	d106      	bne.n	8000954 <__aeabi_ddiv+0x1b0>
 8000946:	ea52 3503 	orrs.w	r5, r2, r3, lsl #12
 800094a:	f43f aefd 	beq.w	8000748 <__aeabi_dmul+0x1f8>
 800094e:	4610      	mov	r0, r2
 8000950:	4619      	mov	r1, r3
 8000952:	e722      	b.n	800079a <__aeabi_dmul+0x24a>
 8000954:	ea50 0641 	orrs.w	r6, r0, r1, lsl #1
 8000958:	bf18      	it	ne
 800095a:	ea52 0643 	orrsne.w	r6, r2, r3, lsl #1
 800095e:	f47f aec5 	bne.w	80006ec <__aeabi_dmul+0x19c>
 8000962:	ea50 0441 	orrs.w	r4, r0, r1, lsl #1
 8000966:	f47f af0d 	bne.w	8000784 <__aeabi_dmul+0x234>
 800096a:	ea52 0543 	orrs.w	r5, r2, r3, lsl #1
 800096e:	f47f aeeb 	bne.w	8000748 <__aeabi_dmul+0x1f8>
 8000972:	e712      	b.n	800079a <__aeabi_dmul+0x24a>

08000974 <__aeabi_d2uiz>:
 8000974:	004a      	lsls	r2, r1, #1
 8000976:	d211      	bcs.n	800099c <__aeabi_d2uiz+0x28>
 8000978:	f512 1200 	adds.w	r2, r2, #2097152	; 0x200000
 800097c:	d211      	bcs.n	80009a2 <__aeabi_d2uiz+0x2e>
 800097e:	d50d      	bpl.n	800099c <__aeabi_d2uiz+0x28>
 8000980:	f46f 7378 	mvn.w	r3, #992	; 0x3e0
 8000984:	ebb3 5262 	subs.w	r2, r3, r2, asr #21
 8000988:	d40e      	bmi.n	80009a8 <__aeabi_d2uiz+0x34>
 800098a:	ea4f 23c1 	mov.w	r3, r1, lsl #11
 800098e:	f043 4300 	orr.w	r3, r3, #2147483648	; 0x80000000
 8000992:	ea43 5350 	orr.w	r3, r3, r0, lsr #21
 8000996:	fa23 f002 	lsr.w	r0, r3, r2
 800099a:	4770      	bx	lr
 800099c:	f04f 0000 	mov.w	r0, #0
 80009a0:	4770      	bx	lr
 80009a2:	ea50 3001 	orrs.w	r0, r0, r1, lsl #12
 80009a6:	d102      	bne.n	80009ae <__aeabi_d2uiz+0x3a>
 80009a8:	f04f 30ff 	mov.w	r0, #4294967295
 80009ac:	4770      	bx	lr
 80009ae:	f04f 0000 	mov.w	r0, #0
 80009b2:	4770      	bx	lr

080009b4 <AACC_vSetSpeedLimit>:
static uint8_t gl_u8AccSpeedLimit = 0;
static uint8_t gl_u8LastSpeed = 0;
static uint8_t gl_u8MotorFlag = 0;

void AACC_vSetSpeedLimit(ST_DCM_cfg_t *rightdcm ,ST_DCM_cfg_t *leftdcm ,uint8_t copy_u8SpeedLimit)
{
 80009b4:	b580      	push	{r7, lr}
 80009b6:	b084      	sub	sp, #16
 80009b8:	af00      	add	r7, sp, #0
 80009ba:	60f8      	str	r0, [r7, #12]
 80009bc:	60b9      	str	r1, [r7, #8]
 80009be:	4613      	mov	r3, r2
 80009c0:	71fb      	strb	r3, [r7, #7]
	gl_u8AccSpeedLimit = copy_u8SpeedLimit; /* Setting the speed limit to be global */
 80009c2:	4a0b      	ldr	r2, [pc, #44]	; (80009f0 <AACC_vSetSpeedLimit+0x3c>)
 80009c4:	79fb      	ldrb	r3, [r7, #7]
 80009c6:	7013      	strb	r3, [r2, #0]
	HDCM_turnOn(rightdcm); /* turn dc motor on to start moving the car */
 80009c8:	68f8      	ldr	r0, [r7, #12]
 80009ca:	f001 f930 	bl	8001c2e <HDCM_turnOn>
	HDCM_turnOn(leftdcm);
 80009ce:	68b8      	ldr	r0, [r7, #8]
 80009d0:	f001 f92d 	bl	8001c2e <HDCM_turnOn>
	HHC05_uddtTransmitString(MUART1_PERIPHERAL,(uint8_t *)"ACC Speed Limit Is Setting \r\n");
 80009d4:	4907      	ldr	r1, [pc, #28]	; (80009f4 <AACC_vSetSpeedLimit+0x40>)
 80009d6:	4808      	ldr	r0, [pc, #32]	; (80009f8 <AACC_vSetSpeedLimit+0x44>)
 80009d8:	f001 f9f2 	bl	8001dc0 <HHC05_uddtTransmitString>
	gl_u8MotorFlag = 1;
 80009dc:	4b07      	ldr	r3, [pc, #28]	; (80009fc <AACC_vSetSpeedLimit+0x48>)
 80009de:	2201      	movs	r2, #1
 80009e0:	701a      	strb	r2, [r3, #0]
	gl_u8LastSpeed = 0;
 80009e2:	4b07      	ldr	r3, [pc, #28]	; (8000a00 <AACC_vSetSpeedLimit+0x4c>)
 80009e4:	2200      	movs	r2, #0
 80009e6:	701a      	strb	r2, [r3, #0]
}
 80009e8:	bf00      	nop
 80009ea:	3710      	adds	r7, #16
 80009ec:	46bd      	mov	sp, r7
 80009ee:	bd80      	pop	{r7, pc}
 80009f0:	2000008c 	.word	0x2000008c
 80009f4:	08003114 	.word	0x08003114
 80009f8:	40011000 	.word	0x40011000
 80009fc:	2000008e 	.word	0x2000008e
 8000a00:	2000008d 	.word	0x2000008d

08000a04 <AACC_vControlingCar>:

void AACC_vControlingCar(ST_DCM_cfg_t *rightdcm ,ST_DCM_cfg_t *leftdcm ,uint32_t copy_u32CurrentDistance)
{
 8000a04:	b580      	push	{r7, lr}
 8000a06:	b084      	sub	sp, #16
 8000a08:	af00      	add	r7, sp, #0
 8000a0a:	60f8      	str	r0, [r7, #12]
 8000a0c:	60b9      	str	r1, [r7, #8]
 8000a0e:	607a      	str	r2, [r7, #4]
	if((copy_u32CurrentDistance >= GREEN_RANGE) && (gl_u8LastSpeed < gl_u8AccSpeedLimit))
 8000a10:	687b      	ldr	r3, [r7, #4]
 8000a12:	2b31      	cmp	r3, #49	; 0x31
 8000a14:	d938      	bls.n	8000a88 <AACC_vControlingCar+0x84>
 8000a16:	4b85      	ldr	r3, [pc, #532]	; (8000c2c <AACC_vControlingCar+0x228>)
 8000a18:	781a      	ldrb	r2, [r3, #0]
 8000a1a:	4b85      	ldr	r3, [pc, #532]	; (8000c30 <AACC_vControlingCar+0x22c>)
 8000a1c:	781b      	ldrb	r3, [r3, #0]
 8000a1e:	429a      	cmp	r2, r3
 8000a20:	d232      	bcs.n	8000a88 <AACC_vControlingCar+0x84>
	{
		if(gl_u8MotorFlag == 0)
 8000a22:	4b84      	ldr	r3, [pc, #528]	; (8000c34 <AACC_vControlingCar+0x230>)
 8000a24:	781b      	ldrb	r3, [r3, #0]
 8000a26:	2b00      	cmp	r3, #0
 8000a28:	d11f      	bne.n	8000a6a <AACC_vControlingCar+0x66>
		{
			gl_u8LastSpeed +=10;
 8000a2a:	4b80      	ldr	r3, [pc, #512]	; (8000c2c <AACC_vControlingCar+0x228>)
 8000a2c:	781b      	ldrb	r3, [r3, #0]
 8000a2e:	330a      	adds	r3, #10
 8000a30:	b2da      	uxtb	r2, r3
 8000a32:	4b7e      	ldr	r3, [pc, #504]	; (8000c2c <AACC_vControlingCar+0x228>)
 8000a34:	701a      	strb	r2, [r3, #0]
			HDCM_controlSpeed(gl_u8LastSpeed); /* set the speed of ACC taken from driver */
 8000a36:	4b7d      	ldr	r3, [pc, #500]	; (8000c2c <AACC_vControlingCar+0x228>)
 8000a38:	781b      	ldrb	r3, [r3, #0]
 8000a3a:	4618      	mov	r0, r3
 8000a3c:	f001 f95e 	bl	8001cfc <HDCM_controlSpeed>
			HHC05_uddtTransmitString(MUART1_PERIPHERAL,(uint8_t *)"ACC In Green Range \r\n");
 8000a40:	497d      	ldr	r1, [pc, #500]	; (8000c38 <AACC_vControlingCar+0x234>)
 8000a42:	487e      	ldr	r0, [pc, #504]	; (8000c3c <AACC_vControlingCar+0x238>)
 8000a44:	f001 f9bc 	bl	8001dc0 <HHC05_uddtTransmitString>
			HHC05_uddtTransmitString(MUART1_PERIPHERAL,(uint8_t *)"ACC Current Speed Is : ");
 8000a48:	497d      	ldr	r1, [pc, #500]	; (8000c40 <AACC_vControlingCar+0x23c>)
 8000a4a:	487c      	ldr	r0, [pc, #496]	; (8000c3c <AACC_vControlingCar+0x238>)
 8000a4c:	f001 f9b8 	bl	8001dc0 <HHC05_uddtTransmitString>
			HHC05_uddtTransmitByte(MUART1_PERIPHERAL,(gl_u8LastSpeed + '0'));
 8000a50:	4b76      	ldr	r3, [pc, #472]	; (8000c2c <AACC_vControlingCar+0x228>)
 8000a52:	781b      	ldrb	r3, [r3, #0]
 8000a54:	3330      	adds	r3, #48	; 0x30
 8000a56:	b2db      	uxtb	r3, r3
 8000a58:	4619      	mov	r1, r3
 8000a5a:	4878      	ldr	r0, [pc, #480]	; (8000c3c <AACC_vControlingCar+0x238>)
 8000a5c:	f001 f99e 	bl	8001d9c <HHC05_uddtTransmitByte>
			HHC05_uddtTransmitString(MUART1_PERIPHERAL,(uint8_t *)"\r\n");
 8000a60:	4978      	ldr	r1, [pc, #480]	; (8000c44 <AACC_vControlingCar+0x240>)
 8000a62:	4876      	ldr	r0, [pc, #472]	; (8000c3c <AACC_vControlingCar+0x238>)
 8000a64:	f001 f9ac 	bl	8001dc0 <HHC05_uddtTransmitString>
		if(gl_u8MotorFlag == 0)
 8000a68:	e0da      	b.n	8000c20 <AACC_vControlingCar+0x21c>
		}
		else if(gl_u8MotorFlag == 1)
 8000a6a:	4b72      	ldr	r3, [pc, #456]	; (8000c34 <AACC_vControlingCar+0x230>)
 8000a6c:	781b      	ldrb	r3, [r3, #0]
 8000a6e:	2b01      	cmp	r3, #1
 8000a70:	f040 80d6 	bne.w	8000c20 <AACC_vControlingCar+0x21c>
		{
			HDCM_turnOn(leftdcm);
 8000a74:	68b8      	ldr	r0, [r7, #8]
 8000a76:	f001 f8da 	bl	8001c2e <HDCM_turnOn>
			HDCM_turnOn(rightdcm);
 8000a7a:	68f8      	ldr	r0, [r7, #12]
 8000a7c:	f001 f8d7 	bl	8001c2e <HDCM_turnOn>
			gl_u8MotorFlag = 0;
 8000a80:	4b6c      	ldr	r3, [pc, #432]	; (8000c34 <AACC_vControlingCar+0x230>)
 8000a82:	2200      	movs	r2, #0
 8000a84:	701a      	strb	r2, [r3, #0]
		if(gl_u8MotorFlag == 0)
 8000a86:	e0cb      	b.n	8000c20 <AACC_vControlingCar+0x21c>
			/* Do Nothing */
		}


	}
	else if((copy_u32CurrentDistance >= GREEN_RANGE) && (gl_u8LastSpeed > gl_u8AccSpeedLimit) )
 8000a88:	687b      	ldr	r3, [r7, #4]
 8000a8a:	2b31      	cmp	r3, #49	; 0x31
 8000a8c:	d925      	bls.n	8000ada <AACC_vControlingCar+0xd6>
 8000a8e:	4b67      	ldr	r3, [pc, #412]	; (8000c2c <AACC_vControlingCar+0x228>)
 8000a90:	781a      	ldrb	r2, [r3, #0]
 8000a92:	4b67      	ldr	r3, [pc, #412]	; (8000c30 <AACC_vControlingCar+0x22c>)
 8000a94:	781b      	ldrb	r3, [r3, #0]
 8000a96:	429a      	cmp	r2, r3
 8000a98:	d91f      	bls.n	8000ada <AACC_vControlingCar+0xd6>
	{
		gl_u8LastSpeed -=10;
 8000a9a:	4b64      	ldr	r3, [pc, #400]	; (8000c2c <AACC_vControlingCar+0x228>)
 8000a9c:	781b      	ldrb	r3, [r3, #0]
 8000a9e:	3b0a      	subs	r3, #10
 8000aa0:	b2da      	uxtb	r2, r3
 8000aa2:	4b62      	ldr	r3, [pc, #392]	; (8000c2c <AACC_vControlingCar+0x228>)
 8000aa4:	701a      	strb	r2, [r3, #0]
		HDCM_controlSpeed(gl_u8LastSpeed); /* set the speed of NCC taken from driver */
 8000aa6:	4b61      	ldr	r3, [pc, #388]	; (8000c2c <AACC_vControlingCar+0x228>)
 8000aa8:	781b      	ldrb	r3, [r3, #0]
 8000aaa:	4618      	mov	r0, r3
 8000aac:	f001 f926 	bl	8001cfc <HDCM_controlSpeed>
		HHC05_uddtTransmitString(MUART1_PERIPHERAL,(uint8_t *)"ACC In Green Range2 \r\n");
 8000ab0:	4965      	ldr	r1, [pc, #404]	; (8000c48 <AACC_vControlingCar+0x244>)
 8000ab2:	4862      	ldr	r0, [pc, #392]	; (8000c3c <AACC_vControlingCar+0x238>)
 8000ab4:	f001 f984 	bl	8001dc0 <HHC05_uddtTransmitString>
		HHC05_uddtTransmitString(MUART1_PERIPHERAL,(uint8_t *)"ACC Current Speed Is : ");
 8000ab8:	4961      	ldr	r1, [pc, #388]	; (8000c40 <AACC_vControlingCar+0x23c>)
 8000aba:	4860      	ldr	r0, [pc, #384]	; (8000c3c <AACC_vControlingCar+0x238>)
 8000abc:	f001 f980 	bl	8001dc0 <HHC05_uddtTransmitString>
		HHC05_uddtTransmitByte(MUART1_PERIPHERAL,(gl_u8LastSpeed + '0'));
 8000ac0:	4b5a      	ldr	r3, [pc, #360]	; (8000c2c <AACC_vControlingCar+0x228>)
 8000ac2:	781b      	ldrb	r3, [r3, #0]
 8000ac4:	3330      	adds	r3, #48	; 0x30
 8000ac6:	b2db      	uxtb	r3, r3
 8000ac8:	4619      	mov	r1, r3
 8000aca:	485c      	ldr	r0, [pc, #368]	; (8000c3c <AACC_vControlingCar+0x238>)
 8000acc:	f001 f966 	bl	8001d9c <HHC05_uddtTransmitByte>
		HHC05_uddtTransmitString(MUART1_PERIPHERAL,(uint8_t *)"\r\n");
 8000ad0:	495c      	ldr	r1, [pc, #368]	; (8000c44 <AACC_vControlingCar+0x240>)
 8000ad2:	485a      	ldr	r0, [pc, #360]	; (8000c3c <AACC_vControlingCar+0x238>)
 8000ad4:	f001 f974 	bl	8001dc0 <HHC05_uddtTransmitString>
 8000ad8:	e0a3      	b.n	8000c22 <AACC_vControlingCar+0x21e>
	}
	else if((copy_u32CurrentDistance < GREEN_RANGE) && (copy_u32CurrentDistance >= BLUE_RANGE) && (gl_u8LastSpeed < gl_u8AccSpeedLimit))
 8000ada:	687b      	ldr	r3, [r7, #4]
 8000adc:	2b31      	cmp	r3, #49	; 0x31
 8000ade:	d82a      	bhi.n	8000b36 <AACC_vControlingCar+0x132>
 8000ae0:	687b      	ldr	r3, [r7, #4]
 8000ae2:	2b13      	cmp	r3, #19
 8000ae4:	d927      	bls.n	8000b36 <AACC_vControlingCar+0x132>
 8000ae6:	4b51      	ldr	r3, [pc, #324]	; (8000c2c <AACC_vControlingCar+0x228>)
 8000ae8:	781a      	ldrb	r2, [r3, #0]
 8000aea:	4b51      	ldr	r3, [pc, #324]	; (8000c30 <AACC_vControlingCar+0x22c>)
 8000aec:	781b      	ldrb	r3, [r3, #0]
 8000aee:	429a      	cmp	r2, r3
 8000af0:	d221      	bcs.n	8000b36 <AACC_vControlingCar+0x132>
	{
		HHC05_uddtTransmitString(MUART1_PERIPHERAL,(uint8_t *)"ACC In Blue Range \r\n");
 8000af2:	4956      	ldr	r1, [pc, #344]	; (8000c4c <AACC_vControlingCar+0x248>)
 8000af4:	4851      	ldr	r0, [pc, #324]	; (8000c3c <AACC_vControlingCar+0x238>)
 8000af6:	f001 f963 	bl	8001dc0 <HHC05_uddtTransmitString>
		HHC05_uddtTransmitString(MUART1_PERIPHERAL,(uint8_t *)"No Change In Speed : ");
 8000afa:	4955      	ldr	r1, [pc, #340]	; (8000c50 <AACC_vControlingCar+0x24c>)
 8000afc:	484f      	ldr	r0, [pc, #316]	; (8000c3c <AACC_vControlingCar+0x238>)
 8000afe:	f001 f95f 	bl	8001dc0 <HHC05_uddtTransmitString>
		HHC05_uddtTransmitByte(MUART1_PERIPHERAL,(gl_u8LastSpeed + '0'));
 8000b02:	4b4a      	ldr	r3, [pc, #296]	; (8000c2c <AACC_vControlingCar+0x228>)
 8000b04:	781b      	ldrb	r3, [r3, #0]
 8000b06:	3330      	adds	r3, #48	; 0x30
 8000b08:	b2db      	uxtb	r3, r3
 8000b0a:	4619      	mov	r1, r3
 8000b0c:	484b      	ldr	r0, [pc, #300]	; (8000c3c <AACC_vControlingCar+0x238>)
 8000b0e:	f001 f945 	bl	8001d9c <HHC05_uddtTransmitByte>
		HHC05_uddtTransmitString(MUART1_PERIPHERAL,(uint8_t *)"\r\n");
 8000b12:	494c      	ldr	r1, [pc, #304]	; (8000c44 <AACC_vControlingCar+0x240>)
 8000b14:	4849      	ldr	r0, [pc, #292]	; (8000c3c <AACC_vControlingCar+0x238>)
 8000b16:	f001 f953 	bl	8001dc0 <HHC05_uddtTransmitString>
		if(gl_u8MotorFlag == 1)
 8000b1a:	4b46      	ldr	r3, [pc, #280]	; (8000c34 <AACC_vControlingCar+0x230>)
 8000b1c:	781b      	ldrb	r3, [r3, #0]
 8000b1e:	2b01      	cmp	r3, #1
 8000b20:	d17f      	bne.n	8000c22 <AACC_vControlingCar+0x21e>
		{
			HDCM_turnOn(rightdcm);
 8000b22:	68f8      	ldr	r0, [r7, #12]
 8000b24:	f001 f883 	bl	8001c2e <HDCM_turnOn>
			HDCM_turnOn(leftdcm);
 8000b28:	68b8      	ldr	r0, [r7, #8]
 8000b2a:	f001 f880 	bl	8001c2e <HDCM_turnOn>
			gl_u8MotorFlag = 0;
 8000b2e:	4b41      	ldr	r3, [pc, #260]	; (8000c34 <AACC_vControlingCar+0x230>)
 8000b30:	2200      	movs	r2, #0
 8000b32:	701a      	strb	r2, [r3, #0]
		if(gl_u8MotorFlag == 1)
 8000b34:	e075      	b.n	8000c22 <AACC_vControlingCar+0x21e>
		else
		{
			/* Do Nothing */;
		}
	}
	else if((copy_u32CurrentDistance < GREEN_RANGE) && (copy_u32CurrentDistance >= BLUE_RANGE) && (gl_u8LastSpeed > gl_u8AccSpeedLimit))
 8000b36:	687b      	ldr	r3, [r7, #4]
 8000b38:	2b31      	cmp	r3, #49	; 0x31
 8000b3a:	d835      	bhi.n	8000ba8 <AACC_vControlingCar+0x1a4>
 8000b3c:	687b      	ldr	r3, [r7, #4]
 8000b3e:	2b13      	cmp	r3, #19
 8000b40:	d932      	bls.n	8000ba8 <AACC_vControlingCar+0x1a4>
 8000b42:	4b3a      	ldr	r3, [pc, #232]	; (8000c2c <AACC_vControlingCar+0x228>)
 8000b44:	781a      	ldrb	r2, [r3, #0]
 8000b46:	4b3a      	ldr	r3, [pc, #232]	; (8000c30 <AACC_vControlingCar+0x22c>)
 8000b48:	781b      	ldrb	r3, [r3, #0]
 8000b4a:	429a      	cmp	r2, r3
 8000b4c:	d92c      	bls.n	8000ba8 <AACC_vControlingCar+0x1a4>
	{
		gl_u8LastSpeed -=10;
 8000b4e:	4b37      	ldr	r3, [pc, #220]	; (8000c2c <AACC_vControlingCar+0x228>)
 8000b50:	781b      	ldrb	r3, [r3, #0]
 8000b52:	3b0a      	subs	r3, #10
 8000b54:	b2da      	uxtb	r2, r3
 8000b56:	4b35      	ldr	r3, [pc, #212]	; (8000c2c <AACC_vControlingCar+0x228>)
 8000b58:	701a      	strb	r2, [r3, #0]
		HDCM_controlSpeed(gl_u8LastSpeed); /* set the speed of NCC taken from driver */
 8000b5a:	4b34      	ldr	r3, [pc, #208]	; (8000c2c <AACC_vControlingCar+0x228>)
 8000b5c:	781b      	ldrb	r3, [r3, #0]
 8000b5e:	4618      	mov	r0, r3
 8000b60:	f001 f8cc 	bl	8001cfc <HDCM_controlSpeed>
		HHC05_uddtTransmitString(MUART1_PERIPHERAL,(uint8_t *)"ACC In Blue Range2\r\n");
 8000b64:	493b      	ldr	r1, [pc, #236]	; (8000c54 <AACC_vControlingCar+0x250>)
 8000b66:	4835      	ldr	r0, [pc, #212]	; (8000c3c <AACC_vControlingCar+0x238>)
 8000b68:	f001 f92a 	bl	8001dc0 <HHC05_uddtTransmitString>
		HHC05_uddtTransmitString(MUART1_PERIPHERAL,(uint8_t *)"No Change In Speed : ");
 8000b6c:	4938      	ldr	r1, [pc, #224]	; (8000c50 <AACC_vControlingCar+0x24c>)
 8000b6e:	4833      	ldr	r0, [pc, #204]	; (8000c3c <AACC_vControlingCar+0x238>)
 8000b70:	f001 f926 	bl	8001dc0 <HHC05_uddtTransmitString>
		HHC05_uddtTransmitByte(MUART1_PERIPHERAL,(gl_u8LastSpeed + '0'));
 8000b74:	4b2d      	ldr	r3, [pc, #180]	; (8000c2c <AACC_vControlingCar+0x228>)
 8000b76:	781b      	ldrb	r3, [r3, #0]
 8000b78:	3330      	adds	r3, #48	; 0x30
 8000b7a:	b2db      	uxtb	r3, r3
 8000b7c:	4619      	mov	r1, r3
 8000b7e:	482f      	ldr	r0, [pc, #188]	; (8000c3c <AACC_vControlingCar+0x238>)
 8000b80:	f001 f90c 	bl	8001d9c <HHC05_uddtTransmitByte>
		HHC05_uddtTransmitString(MUART1_PERIPHERAL,(uint8_t *)"\r\n");
 8000b84:	492f      	ldr	r1, [pc, #188]	; (8000c44 <AACC_vControlingCar+0x240>)
 8000b86:	482d      	ldr	r0, [pc, #180]	; (8000c3c <AACC_vControlingCar+0x238>)
 8000b88:	f001 f91a 	bl	8001dc0 <HHC05_uddtTransmitString>
		if(gl_u8MotorFlag == 1)
 8000b8c:	4b29      	ldr	r3, [pc, #164]	; (8000c34 <AACC_vControlingCar+0x230>)
 8000b8e:	781b      	ldrb	r3, [r3, #0]
 8000b90:	2b01      	cmp	r3, #1
 8000b92:	d146      	bne.n	8000c22 <AACC_vControlingCar+0x21e>
		{
			HDCM_turnOn(rightdcm);
 8000b94:	68f8      	ldr	r0, [r7, #12]
 8000b96:	f001 f84a 	bl	8001c2e <HDCM_turnOn>
			HDCM_turnOn(leftdcm);
 8000b9a:	68b8      	ldr	r0, [r7, #8]
 8000b9c:	f001 f847 	bl	8001c2e <HDCM_turnOn>
			gl_u8MotorFlag = 0;
 8000ba0:	4b24      	ldr	r3, [pc, #144]	; (8000c34 <AACC_vControlingCar+0x230>)
 8000ba2:	2200      	movs	r2, #0
 8000ba4:	701a      	strb	r2, [r3, #0]
		if(gl_u8MotorFlag == 1)
 8000ba6:	e03c      	b.n	8000c22 <AACC_vControlingCar+0x21e>
		else
		{
			/* Do Nothing */;
		}
	}
	else if((copy_u32CurrentDistance < BLUE_RANGE) && (copy_u32CurrentDistance > RED_RANGE))
 8000ba8:	687b      	ldr	r3, [r7, #4]
 8000baa:	2b13      	cmp	r3, #19
 8000bac:	d833      	bhi.n	8000c16 <AACC_vControlingCar+0x212>
 8000bae:	687b      	ldr	r3, [r7, #4]
 8000bb0:	2b00      	cmp	r3, #0
 8000bb2:	d030      	beq.n	8000c16 <AACC_vControlingCar+0x212>
	{
		if(gl_u8LastSpeed > 10)
 8000bb4:	4b1d      	ldr	r3, [pc, #116]	; (8000c2c <AACC_vControlingCar+0x228>)
 8000bb6:	781b      	ldrb	r3, [r3, #0]
 8000bb8:	2b0a      	cmp	r3, #10
 8000bba:	d91f      	bls.n	8000bfc <AACC_vControlingCar+0x1f8>
		{
			gl_u8LastSpeed -=10;
 8000bbc:	4b1b      	ldr	r3, [pc, #108]	; (8000c2c <AACC_vControlingCar+0x228>)
 8000bbe:	781b      	ldrb	r3, [r3, #0]
 8000bc0:	3b0a      	subs	r3, #10
 8000bc2:	b2da      	uxtb	r2, r3
 8000bc4:	4b19      	ldr	r3, [pc, #100]	; (8000c2c <AACC_vControlingCar+0x228>)
 8000bc6:	701a      	strb	r2, [r3, #0]
			HDCM_controlSpeed(gl_u8LastSpeed); /* set the speed of NCC taken from driver */
 8000bc8:	4b18      	ldr	r3, [pc, #96]	; (8000c2c <AACC_vControlingCar+0x228>)
 8000bca:	781b      	ldrb	r3, [r3, #0]
 8000bcc:	4618      	mov	r0, r3
 8000bce:	f001 f895 	bl	8001cfc <HDCM_controlSpeed>
			HHC05_uddtTransmitString(MUART1_PERIPHERAL,(uint8_t *)"ACC In Red Range \r\n");
 8000bd2:	4921      	ldr	r1, [pc, #132]	; (8000c58 <AACC_vControlingCar+0x254>)
 8000bd4:	4819      	ldr	r0, [pc, #100]	; (8000c3c <AACC_vControlingCar+0x238>)
 8000bd6:	f001 f8f3 	bl	8001dc0 <HHC05_uddtTransmitString>
			HHC05_uddtTransmitString(MUART1_PERIPHERAL,(uint8_t *)"ACC Current Speed Is : ");
 8000bda:	4919      	ldr	r1, [pc, #100]	; (8000c40 <AACC_vControlingCar+0x23c>)
 8000bdc:	4817      	ldr	r0, [pc, #92]	; (8000c3c <AACC_vControlingCar+0x238>)
 8000bde:	f001 f8ef 	bl	8001dc0 <HHC05_uddtTransmitString>
			HHC05_uddtTransmitByte(MUART1_PERIPHERAL,(gl_u8LastSpeed + '0'));
 8000be2:	4b12      	ldr	r3, [pc, #72]	; (8000c2c <AACC_vControlingCar+0x228>)
 8000be4:	781b      	ldrb	r3, [r3, #0]
 8000be6:	3330      	adds	r3, #48	; 0x30
 8000be8:	b2db      	uxtb	r3, r3
 8000bea:	4619      	mov	r1, r3
 8000bec:	4813      	ldr	r0, [pc, #76]	; (8000c3c <AACC_vControlingCar+0x238>)
 8000bee:	f001 f8d5 	bl	8001d9c <HHC05_uddtTransmitByte>
			HHC05_uddtTransmitString(MUART1_PERIPHERAL,(uint8_t *)"\r\n");
 8000bf2:	4914      	ldr	r1, [pc, #80]	; (8000c44 <AACC_vControlingCar+0x240>)
 8000bf4:	4811      	ldr	r0, [pc, #68]	; (8000c3c <AACC_vControlingCar+0x238>)
 8000bf6:	f001 f8e3 	bl	8001dc0 <HHC05_uddtTransmitString>
		if(gl_u8LastSpeed > 10)
 8000bfa:	e012      	b.n	8000c22 <AACC_vControlingCar+0x21e>
		}
		else
		{
			HDCM_turnOff(leftdcm);
 8000bfc:	68b8      	ldr	r0, [r7, #8]
 8000bfe:	f000 fff5 	bl	8001bec <HDCM_turnOff>
			HDCM_turnOff(rightdcm);
 8000c02:	68f8      	ldr	r0, [r7, #12]
 8000c04:	f000 fff2 	bl	8001bec <HDCM_turnOff>
			gl_u8MotorFlag = 1;
 8000c08:	4b0a      	ldr	r3, [pc, #40]	; (8000c34 <AACC_vControlingCar+0x230>)
 8000c0a:	2201      	movs	r2, #1
 8000c0c:	701a      	strb	r2, [r3, #0]
			//HDCM_controlSpeed(1);
			MTMR_vStopTimer(MTMR2);
 8000c0e:	2000      	movs	r0, #0
 8000c10:	f001 fe16 	bl	8002840 <MTMR_vStopTimer>
		if(gl_u8LastSpeed > 10)
 8000c14:	e005      	b.n	8000c22 <AACC_vControlingCar+0x21e>
		}

	}
	else
	{
		HHC05_uddtTransmitString(MUART1_PERIPHERAL,(uint8_t *)"Reach Speed Limit\r\n");
 8000c16:	4911      	ldr	r1, [pc, #68]	; (8000c5c <AACC_vControlingCar+0x258>)
 8000c18:	4808      	ldr	r0, [pc, #32]	; (8000c3c <AACC_vControlingCar+0x238>)
 8000c1a:	f001 f8d1 	bl	8001dc0 <HHC05_uddtTransmitString>

	}
}
 8000c1e:	e000      	b.n	8000c22 <AACC_vControlingCar+0x21e>
		if(gl_u8MotorFlag == 0)
 8000c20:	bf00      	nop
}
 8000c22:	bf00      	nop
 8000c24:	3710      	adds	r7, #16
 8000c26:	46bd      	mov	sp, r7
 8000c28:	bd80      	pop	{r7, pc}
 8000c2a:	bf00      	nop
 8000c2c:	2000008d 	.word	0x2000008d
 8000c30:	2000008c 	.word	0x2000008c
 8000c34:	2000008e 	.word	0x2000008e
 8000c38:	08003134 	.word	0x08003134
 8000c3c:	40011000 	.word	0x40011000
 8000c40:	0800314c 	.word	0x0800314c
 8000c44:	08003164 	.word	0x08003164
 8000c48:	08003168 	.word	0x08003168
 8000c4c:	08003180 	.word	0x08003180
 8000c50:	08003198 	.word	0x08003198
 8000c54:	080031b0 	.word	0x080031b0
 8000c58:	080031c8 	.word	0x080031c8
 8000c5c:	080031dc 	.word	0x080031dc

08000c60 <AACC_vStopAcc>:


void AACC_vStopAcc(ST_DCM_cfg_t *rightdcm ,ST_DCM_cfg_t *leftdcm)
{
 8000c60:	b580      	push	{r7, lr}
 8000c62:	b082      	sub	sp, #8
 8000c64:	af00      	add	r7, sp, #0
 8000c66:	6078      	str	r0, [r7, #4]
 8000c68:	6039      	str	r1, [r7, #0]
	if( (leftdcm != PTR_NULL) &&  (rightdcm != PTR_NULL))
 8000c6a:	683b      	ldr	r3, [r7, #0]
 8000c6c:	2b00      	cmp	r3, #0
 8000c6e:	d00b      	beq.n	8000c88 <AACC_vStopAcc+0x28>
 8000c70:	687b      	ldr	r3, [r7, #4]
 8000c72:	2b00      	cmp	r3, #0
 8000c74:	d008      	beq.n	8000c88 <AACC_vStopAcc+0x28>
	{
		HDCM_turnOff(leftdcm);
 8000c76:	6838      	ldr	r0, [r7, #0]
 8000c78:	f000 ffb8 	bl	8001bec <HDCM_turnOff>
		HDCM_turnOff(rightdcm);
 8000c7c:	6878      	ldr	r0, [r7, #4]
 8000c7e:	f000 ffb5 	bl	8001bec <HDCM_turnOff>
		//HDCM_controlSpeed(1);
		MTMR_vStopTimer(MTMR2);
 8000c82:	2000      	movs	r0, #0
 8000c84:	f001 fddc 	bl	8002840 <MTMR_vStopTimer>
	}
	else
	{
		/* Do Nothing */
	}
}
 8000c88:	bf00      	nop
 8000c8a:	3708      	adds	r7, #8
 8000c8c:	46bd      	mov	sp, r7
 8000c8e:	bd80      	pop	{r7, pc}

08000c90 <AACC_vChangeAccSpeedLimit>:

uint8_t AACC_vChangeAccSpeedLimit(uint8_t copy_u8SpeedAction)
{
 8000c90:	b480      	push	{r7}
 8000c92:	b083      	sub	sp, #12
 8000c94:	af00      	add	r7, sp, #0
 8000c96:	4603      	mov	r3, r0
 8000c98:	71fb      	strb	r3, [r7, #7]
	switch(copy_u8SpeedAction)
 8000c9a:	79fb      	ldrb	r3, [r7, #7]
 8000c9c:	2b2b      	cmp	r3, #43	; 0x2b
 8000c9e:	d002      	beq.n	8000ca6 <AACC_vChangeAccSpeedLimit+0x16>
 8000ca0:	2b2d      	cmp	r3, #45	; 0x2d
 8000ca2:	d007      	beq.n	8000cb4 <AACC_vChangeAccSpeedLimit+0x24>
			break;
		}
		default :
		{
			/*Do Nothing*/
			break;
 8000ca4:	e00d      	b.n	8000cc2 <AACC_vChangeAccSpeedLimit+0x32>
			gl_u8AccSpeedLimit+=10;
 8000ca6:	4b0b      	ldr	r3, [pc, #44]	; (8000cd4 <AACC_vChangeAccSpeedLimit+0x44>)
 8000ca8:	781b      	ldrb	r3, [r3, #0]
 8000caa:	330a      	adds	r3, #10
 8000cac:	b2da      	uxtb	r2, r3
 8000cae:	4b09      	ldr	r3, [pc, #36]	; (8000cd4 <AACC_vChangeAccSpeedLimit+0x44>)
 8000cb0:	701a      	strb	r2, [r3, #0]
			break;
 8000cb2:	e006      	b.n	8000cc2 <AACC_vChangeAccSpeedLimit+0x32>
			gl_u8AccSpeedLimit-=10;
 8000cb4:	4b07      	ldr	r3, [pc, #28]	; (8000cd4 <AACC_vChangeAccSpeedLimit+0x44>)
 8000cb6:	781b      	ldrb	r3, [r3, #0]
 8000cb8:	3b0a      	subs	r3, #10
 8000cba:	b2da      	uxtb	r2, r3
 8000cbc:	4b05      	ldr	r3, [pc, #20]	; (8000cd4 <AACC_vChangeAccSpeedLimit+0x44>)
 8000cbe:	701a      	strb	r2, [r3, #0]
			break;
 8000cc0:	bf00      	nop
		}
	}
	return gl_u8AccSpeedLimit;
 8000cc2:	4b04      	ldr	r3, [pc, #16]	; (8000cd4 <AACC_vChangeAccSpeedLimit+0x44>)
 8000cc4:	781b      	ldrb	r3, [r3, #0]
}
 8000cc6:	4618      	mov	r0, r3
 8000cc8:	370c      	adds	r7, #12
 8000cca:	46bd      	mov	sp, r7
 8000ccc:	f85d 7b04 	ldr.w	r7, [sp], #4
 8000cd0:	4770      	bx	lr
 8000cd2:	bf00      	nop
 8000cd4:	2000008c 	.word	0x2000008c

08000cd8 <AAEB_vIsReady>:
#include "../../../Inc/APPLICATION/Automatic_Emergency_Brake/aeb_interface.h"



void AAEB_vIsReady(void)
{
 8000cd8:	b580      	push	{r7, lr}
 8000cda:	af00      	add	r7, sp, #0
	/* transmit a massage for the driver with UART */
	HHC05_uddtTransmitString(MUART1_PERIPHERAL,(uint8_t *)"Automatic Emergency Brake Is Ready \r\n");
 8000cdc:	4902      	ldr	r1, [pc, #8]	; (8000ce8 <AAEB_vIsReady+0x10>)
 8000cde:	4803      	ldr	r0, [pc, #12]	; (8000cec <AAEB_vIsReady+0x14>)
 8000ce0:	f001 f86e 	bl	8001dc0 <HHC05_uddtTransmitString>
}
 8000ce4:	bf00      	nop
 8000ce6:	bd80      	pop	{r7, pc}
 8000ce8:	080031f0 	.word	0x080031f0
 8000cec:	40011000 	.word	0x40011000

08000cf0 <AAEB_uddtCheckForObstacles>:

EN_AAEB_zones_t AAEB_uddtCheckForObstacles(ST_DCM_cfg_t *PS_uddtRightDcm , ST_DCM_cfg_t *PS_uddtLeftDcm , uint32_t copy_u32CurrentDistance)
{
 8000cf0:	b580      	push	{r7, lr}
 8000cf2:	b086      	sub	sp, #24
 8000cf4:	af00      	add	r7, sp, #0
 8000cf6:	60f8      	str	r0, [r7, #12]
 8000cf8:	60b9      	str	r1, [r7, #8]
 8000cfa:	607a      	str	r2, [r7, #4]
	EN_AAEB_zones_t ret = AAEB_SAFE_ZONE;
 8000cfc:	2300      	movs	r3, #0
 8000cfe:	75fb      	strb	r3, [r7, #23]
	if( (PS_uddtRightDcm != PTR_NULL) && (PS_uddtLeftDcm != PTR_NULL))
 8000d00:	68fb      	ldr	r3, [r7, #12]
 8000d02:	2b00      	cmp	r3, #0
 8000d04:	d013      	beq.n	8000d2e <AAEB_uddtCheckForObstacles+0x3e>
 8000d06:	68bb      	ldr	r3, [r7, #8]
 8000d08:	2b00      	cmp	r3, #0
 8000d0a:	d010      	beq.n	8000d2e <AAEB_uddtCheckForObstacles+0x3e>
	{
		if(copy_u32CurrentDistance <= DANGEROUS_ZONE)
 8000d0c:	687b      	ldr	r3, [r7, #4]
 8000d0e:	2b0a      	cmp	r3, #10
 8000d10:	d80b      	bhi.n	8000d2a <AAEB_uddtCheckForObstacles+0x3a>
		{
			MTMR_vStopTimer(MTMR2);
 8000d12:	2000      	movs	r0, #0
 8000d14:	f001 fd94 	bl	8002840 <MTMR_vStopTimer>
			//HDCM_controlSpeed(STOP_SPEED); /* Stop PWM*/
			HDCM_turnOff(PS_uddtRightDcm); /* turn off dc_motors to stop car */
 8000d18:	68f8      	ldr	r0, [r7, #12]
 8000d1a:	f000 ff67 	bl	8001bec <HDCM_turnOff>
			HDCM_turnOff(PS_uddtLeftDcm);
 8000d1e:	68b8      	ldr	r0, [r7, #8]
 8000d20:	f000 ff64 	bl	8001bec <HDCM_turnOff>
			ret = AAEB_DANGEROUS_ZONE;
 8000d24:	2301      	movs	r3, #1
 8000d26:	75fb      	strb	r3, [r7, #23]
 8000d28:	e001      	b.n	8000d2e <AAEB_uddtCheckForObstacles+0x3e>
		}
		else
		{
			ret = AAEB_SAFE_ZONE;
 8000d2a:	2300      	movs	r3, #0
 8000d2c:	75fb      	strb	r3, [r7, #23]
	}
	else
	{
		/* do nothing */
	}
	return ret;
 8000d2e:	7dfb      	ldrb	r3, [r7, #23]
}
 8000d30:	4618      	mov	r0, r3
 8000d32:	3718      	adds	r7, #24
 8000d34:	46bd      	mov	sp, r7
 8000d36:	bd80      	pop	{r7, pc}

08000d38 <ESP_Callback>:
 * @brief callback function will execute when UART2 receive any thing
 *
 */

void ESP_Callback(void)
{
 8000d38:	b580      	push	{r7, lr}
 8000d3a:	af00      	add	r7, sp, #0
	/* Receive read register of UART2 in gl_u8Uart2Buffer variable  */
	gl_u8Uart2Buffer = MUART2_PERIPHERAL->MUSART_DR;
 8000d3c:	4b0a      	ldr	r3, [pc, #40]	; (8000d68 <ESP_Callback+0x30>)
 8000d3e:	685b      	ldr	r3, [r3, #4]
 8000d40:	b2da      	uxtb	r2, r3
 8000d42:	4b0a      	ldr	r3, [pc, #40]	; (8000d6c <ESP_Callback+0x34>)
 8000d44:	701a      	strb	r2, [r3, #0]
	/* check if the data equal to 'm' */
	if(gl_u8Uart2Buffer == 'm')
 8000d46:	4b09      	ldr	r3, [pc, #36]	; (8000d6c <ESP_Callback+0x34>)
 8000d48:	781b      	ldrb	r3, [r3, #0]
 8000d4a:	2b6d      	cmp	r3, #109	; 0x6d
 8000d4c:	d109      	bne.n	8000d62 <ESP_Callback+0x2a>
	{
		/* transmit a massage for the driver with UART with fault code & short description about it*/
		MUSART_uddtTransmitByte(MUART1_PERIPHERAL,'j');
 8000d4e:	216a      	movs	r1, #106	; 0x6a
 8000d50:	4807      	ldr	r0, [pc, #28]	; (8000d70 <ESP_Callback+0x38>)
 8000d52:	f002 f88c 	bl	8002e6e <MUSART_uddtTransmitByte>
		/* set gl_u8NewFirmwareFlag to indicate car system that a new firmware is available */
		gl_u8NewFirmwareFlag = 1;
 8000d56:	4b07      	ldr	r3, [pc, #28]	; (8000d74 <ESP_Callback+0x3c>)
 8000d58:	2201      	movs	r2, #1
 8000d5a:	701a      	strb	r2, [r3, #0]
		gl_u8Uart2Buffer = STR_NULL;
 8000d5c:	4b03      	ldr	r3, [pc, #12]	; (8000d6c <ESP_Callback+0x34>)
 8000d5e:	2200      	movs	r2, #0
 8000d60:	701a      	strb	r2, [r3, #0]
	}
	else
	{
		/*Do Nothing */
	}
}
 8000d62:	bf00      	nop
 8000d64:	bd80      	pop	{r7, pc}
 8000d66:	bf00      	nop
 8000d68:	40004400 	.word	0x40004400
 8000d6c:	200000a3 	.word	0x200000a3
 8000d70:	40011000 	.word	0x40011000
 8000d74:	200000a1 	.word	0x200000a1

08000d78 <HC05_Callback>:

void HC05_Callback(void)
{
 8000d78:	b580      	push	{r7, lr}
 8000d7a:	af00      	add	r7, sp, #0
	/* Receive read register of UART1 in gl_u8Uart1Buffer variable  */
	gl_u8Uart1Buffer = MUART1_PERIPHERAL->MUSART_DR;
 8000d7c:	4b09      	ldr	r3, [pc, #36]	; (8000da4 <HC05_Callback+0x2c>)
 8000d7e:	685b      	ldr	r3, [r3, #4]
 8000d80:	b2da      	uxtb	r2, r3
 8000d82:	4b09      	ldr	r3, [pc, #36]	; (8000da8 <HC05_Callback+0x30>)
 8000d84:	701a      	strb	r2, [r3, #0]
	gl_uddtCarCondation = ABCM_uddtDetermineCarState(gl_u8Uart1Buffer);
 8000d86:	4b08      	ldr	r3, [pc, #32]	; (8000da8 <HC05_Callback+0x30>)
 8000d88:	781b      	ldrb	r3, [r3, #0]
 8000d8a:	4618      	mov	r0, r3
 8000d8c:	f000 fae0 	bl	8001350 <ABCM_uddtDetermineCarState>
 8000d90:	4603      	mov	r3, r0
 8000d92:	461a      	mov	r2, r3
 8000d94:	4b05      	ldr	r3, [pc, #20]	; (8000dac <HC05_Callback+0x34>)
 8000d96:	701a      	strb	r2, [r3, #0]
	gl_u8Uart1Buffer = STR_NULL;
 8000d98:	4b03      	ldr	r3, [pc, #12]	; (8000da8 <HC05_Callback+0x30>)
 8000d9a:	2200      	movs	r2, #0
 8000d9c:	701a      	strb	r2, [r3, #0]

}
 8000d9e:	bf00      	nop
 8000da0:	bd80      	pop	{r7, pc}
 8000da2:	bf00      	nop
 8000da4:	40011000 	.word	0x40011000
 8000da8:	200000a2 	.word	0x200000a2
 8000dac:	20000095 	.word	0x20000095

08000db0 <leftcall>:

 vuint8_t left = 0;
 vuint8_t right = 0;

void leftcall(void)
{
 8000db0:	b480      	push	{r7}
 8000db2:	af00      	add	r7, sp, #0
	left = 1;
 8000db4:	4b03      	ldr	r3, [pc, #12]	; (8000dc4 <leftcall+0x14>)
 8000db6:	2201      	movs	r2, #1
 8000db8:	701a      	strb	r2, [r3, #0]
}
 8000dba:	bf00      	nop
 8000dbc:	46bd      	mov	sp, r7
 8000dbe:	f85d 7b04 	ldr.w	r7, [sp], #4
 8000dc2:	4770      	bx	lr
 8000dc4:	200000a4 	.word	0x200000a4

08000dc8 <rightcall>:

void rightcall(void)
{
 8000dc8:	b480      	push	{r7}
 8000dca:	af00      	add	r7, sp, #0
	right = 1;
 8000dcc:	4b03      	ldr	r3, [pc, #12]	; (8000ddc <rightcall+0x14>)
 8000dce:	2201      	movs	r2, #1
 8000dd0:	701a      	strb	r2, [r3, #0]
}
 8000dd2:	bf00      	nop
 8000dd4:	46bd      	mov	sp, r7
 8000dd6:	f85d 7b04 	ldr.w	r7, [sp], #4
 8000dda:	4770      	bx	lr
 8000ddc:	200000a5 	.word	0x200000a5

08000de0 <ABCM_vSysInit>:
 * @param  : void
 * @return : void
 */

void ABCM_vSysInit(void)
{
 8000de0:	b580      	push	{r7, lr}
 8000de2:	b092      	sub	sp, #72	; 0x48
 8000de4:	af00      	add	r7, sp, #0
	/*############################ configure clock to all of the system #################################*/
	HAL_DeInit();
 8000de6:	f001 fc91 	bl	800270c <HAL_DeInit>
	/* enable RCC of micro_controller  */
	MRCC_Init();
 8000dea:	f001 fc07 	bl	80025fc <MRCC_Init>
	/* enable clock to PORTA  */
	MRCC_enablePeripheral(MRCC_AHP1_BUS, MRCC_GPIOA_PERIPHERAL);
 8000dee:	2100      	movs	r1, #0
 8000df0:	2000      	movs	r0, #0
 8000df2:	f001 fc29 	bl	8002648 <MRCC_enablePeripheral>
	/* enable clock to TIMER2 */
	MRCC_enablePeripheral(MRCC_APB1_BUS, MRCC_TIM2_PERIPHERAL);
 8000df6:	2100      	movs	r1, #0
 8000df8:	2002      	movs	r0, #2
 8000dfa:	f001 fc25 	bl	8002648 <MRCC_enablePeripheral>
	/* enable clock to PORTB  */
	MRCC_enablePeripheral(MRCC_AHP1_BUS, MRCC_GPIOB_PERIPHERAL);
 8000dfe:	2101      	movs	r1, #1
 8000e00:	2000      	movs	r0, #0
 8000e02:	f001 fc21 	bl	8002648 <MRCC_enablePeripheral>
	/* enable clock to USART1 */
	MRCC_enablePeripheral(MRCC_APB2_BUS, MRCC_USART1_PERIPHERAL);
 8000e06:	2104      	movs	r1, #4
 8000e08:	2003      	movs	r0, #3
 8000e0a:	f001 fc1d 	bl	8002648 <MRCC_enablePeripheral>
	/* enable clock to USART2 */
	MRCC_enablePeripheral(MRCC_APB1_BUS, MRCC_USART2_PERIPHERAL);
 8000e0e:	2111      	movs	r1, #17
 8000e10:	2002      	movs	r0, #2
 8000e12:	f001 fc19 	bl	8002648 <MRCC_enablePeripheral>
	/* enable clock to USART6 */
	MRCC_enablePeripheral(MRCC_APB2_BUS, MRCC_USART6_PERIPHERAL);
 8000e16:	2105      	movs	r1, #5
 8000e18:	2003      	movs	r0, #3
 8000e1a:	f001 fc15 	bl	8002648 <MRCC_enablePeripheral>
	/* enable clock to TIMER3 */
	MRCC_enablePeripheral(MRCC_APB1_BUS, MRCC_TIM3_PERIPHERAL);
 8000e1e:	2101      	movs	r1, #1
 8000e20:	2002      	movs	r0, #2
 8000e22:	f001 fc11 	bl	8002648 <MRCC_enablePeripheral>

	/*################################################### Configure NVIC groups ##################################################*/

	/* set NVIC groups to 16 priority group & no sub priority   */
	MNVIC_SetInterruptGroup(GP_16_SP_00);
 8000e26:	2000      	movs	r0, #0
 8000e28:	f001 fbc2 	bl	80025b0 <MNVIC_SetInterruptGroup>
	/* set UART1 receive interrupt to priority group one & without sub priority */
	MNVIC_SetInterruptPriority(37 , GP_16_SP_00 ,1,0);
 8000e2c:	2300      	movs	r3, #0
 8000e2e:	2201      	movs	r2, #1
 8000e30:	2100      	movs	r1, #0
 8000e32:	2025      	movs	r0, #37	; 0x25
 8000e34:	f001 fb5c 	bl	80024f0 <MNVIC_SetInterruptPriority>
	/*enable UART1 receive interrupt*/
	MNVIC_enableInterrupt(37);
 8000e38:	2025      	movs	r0, #37	; 0x25
 8000e3a:	f001 fb2f 	bl	800249c <MNVIC_enableInterrupt>
	/* set UART2 receive interrupt to priority group two & without sub priority */
	MNVIC_SetInterruptPriority(38 , GP_16_SP_00 ,2,0);
 8000e3e:	2300      	movs	r3, #0
 8000e40:	2202      	movs	r2, #2
 8000e42:	2100      	movs	r1, #0
 8000e44:	2026      	movs	r0, #38	; 0x26
 8000e46:	f001 fb53 	bl	80024f0 <MNVIC_SetInterruptPriority>
	/*enable UART2 receive interrupt*/
	MNVIC_enableInterrupt(38);
 8000e4a:	2026      	movs	r0, #38	; 0x26
 8000e4c:	f001 fb26 	bl	800249c <MNVIC_enableInterrupt>

	/* set UART2 receive interrupt to priority group two & without sub priority */
	MNVIC_SetInterruptPriority(10 , GP_16_SP_00 ,3,0);
 8000e50:	2300      	movs	r3, #0
 8000e52:	2203      	movs	r2, #3
 8000e54:	2100      	movs	r1, #0
 8000e56:	200a      	movs	r0, #10
 8000e58:	f001 fb4a 	bl	80024f0 <MNVIC_SetInterruptPriority>
	/*enable UART2 receive interrupt*/
	MNVIC_enableInterrupt(10);
 8000e5c:	200a      	movs	r0, #10
 8000e5e:	f001 fb1d 	bl	800249c <MNVIC_enableInterrupt>

	/* set UART2 receive interrupt to priority group two & without sub priority */
	MNVIC_SetInterruptPriority(23 , GP_16_SP_00 ,3,0);
 8000e62:	2300      	movs	r3, #0
 8000e64:	2203      	movs	r2, #3
 8000e66:	2100      	movs	r1, #0
 8000e68:	2017      	movs	r0, #23
 8000e6a:	f001 fb41 	bl	80024f0 <MNVIC_SetInterruptPriority>
	/*enable UART2 receive interrupt*/
	MNVIC_enableInterrupt(23);
 8000e6e:	2017      	movs	r0, #23
 8000e70:	f001 fb14 	bl	800249c <MNVIC_enableInterrupt>
	/*###################################### Configure USART2 pins for EspMcu #################################################*/
	/*initialise ALT pinA2 for UART */
	ST_MGPIO_altPinCfg_t lo_altUartPinA2 = {MGPIOA_PERIPHERAL,MGPIO_PIN2,MGPIO_ALTFN_7,
 8000e74:	4a3f      	ldr	r2, [pc, #252]	; (8000f74 <ABCM_vSysInit+0x194>)
 8000e76:	f107 033c 	add.w	r3, r7, #60	; 0x3c
 8000e7a:	ca07      	ldmia	r2, {r0, r1, r2}
 8000e7c:	e883 0007 	stmia.w	r3, {r0, r1, r2}
			MGPIO_OUTPUT_RESISTOR_PUSH_PULL,MGPIO_OUTPUT_SPEED_MEDIUM,MGPIO_PULL_FLOATING};
	/*initialise ALT pinA3 for UART */
	ST_MGPIO_altPinCfg_t lo_altUartPinA3 = {MGPIOA_PERIPHERAL,MGPIO_PIN3,MGPIO_ALTFN_7,
 8000e80:	4a3d      	ldr	r2, [pc, #244]	; (8000f78 <ABCM_vSysInit+0x198>)
 8000e82:	f107 0330 	add.w	r3, r7, #48	; 0x30
 8000e86:	ca07      	ldmia	r2, {r0, r1, r2}
 8000e88:	e883 0007 	stmia.w	r3, {r0, r1, r2}
			MGPIO_OUTPUT_RESISTOR_PUSH_PULL,MGPIO_OUTPUT_SPEED_MEDIUM,MGPIO_PULL_FLOATING};
	/* set pin A2 to alternate
	 * set pin A2 to be push pull
	 * set pin A2 speed to medium
	 * set pin A2 alternate 7 */
	MGPIO_uddtInitAltPin(&lo_altUartPinA2);
 8000e8c:	f107 033c 	add.w	r3, r7, #60	; 0x3c
 8000e90:	4618      	mov	r0, r3
 8000e92:	f001 faaf 	bl	80023f4 <MGPIO_uddtInitAltPin>
	/* set pin A3 to alternate
	 * set pin A3 to be push pull
	 * set pin A3 speed to medium
	 * set pin A3 alternate 7 */
	MGPIO_uddtInitAltPin(&lo_altUartPinA3);
 8000e96:	f107 0330 	add.w	r3, r7, #48	; 0x30
 8000e9a:	4618      	mov	r0, r3
 8000e9c:	f001 faaa 	bl	80023f4 <MGPIO_uddtInitAltPin>

	/*initialise UART2 to use with EspMc */
	MUSART_uddtInit(MUART2_PERIPHERAL , &gl_uddtUartOfESP);
 8000ea0:	4936      	ldr	r1, [pc, #216]	; (8000f7c <ABCM_vSysInit+0x19c>)
 8000ea2:	4837      	ldr	r0, [pc, #220]	; (8000f80 <ABCM_vSysInit+0x1a0>)
 8000ea4:	f001 fe68 	bl	8002b78 <MUSART_uddtInit>
	/*enable UART2 to use with EspMc */
	MUSART_uddtEnable(MUART2_PERIPHERAL);
 8000ea8:	4835      	ldr	r0, [pc, #212]	; (8000f80 <ABCM_vSysInit+0x1a0>)
 8000eaa:	f001 ffc5 	bl	8002e38 <MUSART_uddtEnable>
	/*initialise interrupt of UART2 */
	MUSART_RxIntSetStatus(MUART2_PERIPHERAL , MUSART_ENABLE);
 8000eae:	2101      	movs	r1, #1
 8000eb0:	4833      	ldr	r0, [pc, #204]	; (8000f80 <ABCM_vSysInit+0x1a0>)
 8000eb2:	f002 f837 	bl	8002f24 <MUSART_RxIntSetStatus>
	/*set callback function of the receive interrupt with function  ESP_uartCallback*/
	MUSART2_uddtSetCallBack(ESP_Callback);
 8000eb6:	4833      	ldr	r0, [pc, #204]	; (8000f84 <ABCM_vSysInit+0x1a4>)
 8000eb8:	f002 f878 	bl	8002fac <MUSART2_uddtSetCallBack>

	/*###################################### Configure USART6 pins for RPLIDAR #################################################*/
	/*initialise ALT pinA11 for UART */
	ST_MGPIO_altPinCfg_t lo_altUartPinA11 = {MGPIOA_PERIPHERAL,MGPIO_PIN11,MGPIO_ALTFN_8,
 8000ebc:	4a32      	ldr	r2, [pc, #200]	; (8000f88 <ABCM_vSysInit+0x1a8>)
 8000ebe:	f107 0324 	add.w	r3, r7, #36	; 0x24
 8000ec2:	ca07      	ldmia	r2, {r0, r1, r2}
 8000ec4:	e883 0007 	stmia.w	r3, {r0, r1, r2}
			MGPIO_OUTPUT_RESISTOR_PUSH_PULL,MGPIO_OUTPUT_SPEED_MEDIUM,MGPIO_PULL_FLOATING};
	/*initialise ALT pinA12 for UART */
	ST_MGPIO_altPinCfg_t lo_altUartPinA12 = {MGPIOA_PERIPHERAL,MGPIO_PIN12,MGPIO_ALTFN_8,
 8000ec8:	4a30      	ldr	r2, [pc, #192]	; (8000f8c <ABCM_vSysInit+0x1ac>)
 8000eca:	f107 0318 	add.w	r3, r7, #24
 8000ece:	ca07      	ldmia	r2, {r0, r1, r2}
 8000ed0:	e883 0007 	stmia.w	r3, {r0, r1, r2}
			MGPIO_OUTPUT_RESISTOR_PUSH_PULL,MGPIO_OUTPUT_SPEED_MEDIUM,MGPIO_PULL_FLOATING};
	/* set pin A11 to alternate
	 * set pin A11 to be push pull
	 * set pin A11 speed to medium
	 * set pin A11 alternate 7 */
	MGPIO_uddtInitAltPin(&lo_altUartPinA11);
 8000ed4:	f107 0324 	add.w	r3, r7, #36	; 0x24
 8000ed8:	4618      	mov	r0, r3
 8000eda:	f001 fa8b 	bl	80023f4 <MGPIO_uddtInitAltPin>
	/* set pin A12 to alternate
	 * set pin A12 to be push pull
	 * set pin A12 speed to medium
	 * set pin A12 alternate 7 */
	MGPIO_uddtInitAltPin(&lo_altUartPinA12);
 8000ede:	f107 0318 	add.w	r3, r7, #24
 8000ee2:	4618      	mov	r0, r3
 8000ee4:	f001 fa86 	bl	80023f4 <MGPIO_uddtInitAltPin>
	/*initialise UART6 to use with RPLIDAR */
	MUSART_uddtInit(MUART6_PERIPHERAL , &gl_uddtUartOfRplidar);
 8000ee8:	4929      	ldr	r1, [pc, #164]	; (8000f90 <ABCM_vSysInit+0x1b0>)
 8000eea:	482a      	ldr	r0, [pc, #168]	; (8000f94 <ABCM_vSysInit+0x1b4>)
 8000eec:	f001 fe44 	bl	8002b78 <MUSART_uddtInit>
	/*enable UART6 to use with RPLIDAR */
	MUSART_uddtEnable(MUART6_PERIPHERAL);
 8000ef0:	4828      	ldr	r0, [pc, #160]	; (8000f94 <ABCM_vSysInit+0x1b4>)
 8000ef2:	f001 ffa1 	bl	8002e38 <MUSART_uddtEnable>

	/*###################################### Configure HC05 GPIO pins #########################################################*/
	/*initialise ALT pinB6 for UART */
	ST_MGPIO_altPinCfg_t lo_altUartPinB6 = {MGPIOB_PERIPHERAL,MGPIO_PIN6,MGPIO_ALTFN_7,
 8000ef6:	4a28      	ldr	r2, [pc, #160]	; (8000f98 <ABCM_vSysInit+0x1b8>)
 8000ef8:	f107 030c 	add.w	r3, r7, #12
 8000efc:	ca07      	ldmia	r2, {r0, r1, r2}
 8000efe:	e883 0007 	stmia.w	r3, {r0, r1, r2}
			MGPIO_OUTPUT_RESISTOR_PUSH_PULL,MGPIO_OUTPUT_SPEED_MEDIUM,MGPIO_PULL_FLOATING};
	/*initialise ALT pinB7 for UART */
	ST_MGPIO_altPinCfg_t lo_altUartPinB7 = {MGPIOB_PERIPHERAL,MGPIO_PIN7,MGPIO_ALTFN_7,
 8000f02:	4a26      	ldr	r2, [pc, #152]	; (8000f9c <ABCM_vSysInit+0x1bc>)
 8000f04:	463b      	mov	r3, r7
 8000f06:	ca07      	ldmia	r2, {r0, r1, r2}
 8000f08:	e883 0007 	stmia.w	r3, {r0, r1, r2}
			MGPIO_OUTPUT_RESISTOR_PUSH_PULL,MGPIO_OUTPUT_SPEED_MEDIUM,MGPIO_PULL_FLOATING};
	/* set pin b6 to alternate
	 * set pin b6 to be push pull
	 * set pin b6 speed to medium
	 * set pin b6 alternate 7 */
	MGPIO_uddtInitAltPin(&lo_altUartPinB6);
 8000f0c:	f107 030c 	add.w	r3, r7, #12
 8000f10:	4618      	mov	r0, r3
 8000f12:	f001 fa6f 	bl	80023f4 <MGPIO_uddtInitAltPin>
	/* set pin b7 to alternate
	 * set pin b7 to be push pull
	 * set pin b7 speed to medium
	 * set pin b7 alternate 7 */
	MGPIO_uddtInitAltPin(&lo_altUartPinB7);
 8000f16:	463b      	mov	r3, r7
 8000f18:	4618      	mov	r0, r3
 8000f1a:	f001 fa6b 	bl	80023f4 <MGPIO_uddtInitAltPin>

	/* ##################################### Initialise interface module application ############################################*/

	/* initialise communication between car and driver*/
	AUDI_vInitInterface(MUART1_PERIPHERAL , &gl_uddtUartOfHC05 ,HC05_Callback);
 8000f1e:	4a20      	ldr	r2, [pc, #128]	; (8000fa0 <ABCM_vSysInit+0x1c0>)
 8000f20:	4920      	ldr	r1, [pc, #128]	; (8000fa4 <ABCM_vSysInit+0x1c4>)
 8000f22:	4821      	ldr	r0, [pc, #132]	; (8000fa8 <ABCM_vSysInit+0x1c8>)
 8000f24:	f000 fd60 	bl	80019e8 <AUDI_vInitInterface>

	/* ##################################### Initialise dc_motors of the car ####################################################*/

	/* initialise the right side wheels of car to be ready to use */
	HDCM_init(&gl_uddtRightDcm);
 8000f28:	4820      	ldr	r0, [pc, #128]	; (8000fac <ABCM_vSysInit+0x1cc>)
 8000f2a:	f000 fdd7 	bl	8001adc <HDCM_init>
	/* turn right dc_motors on to be ready */
	HDCM_turnOn(&gl_uddtRightDcm);
 8000f2e:	481f      	ldr	r0, [pc, #124]	; (8000fac <ABCM_vSysInit+0x1cc>)
 8000f30:	f000 fe7d 	bl	8001c2e <HDCM_turnOn>
	/* initialise the left side wheels of car to be ready to use */
	HDCM_init(&gl_uddtLeftDcm);
 8000f34:	481e      	ldr	r0, [pc, #120]	; (8000fb0 <ABCM_vSysInit+0x1d0>)
 8000f36:	f000 fdd1 	bl	8001adc <HDCM_init>
	/* turn left dc_motors on to be ready */
	HDCM_turnOn(&gl_uddtLeftDcm);
 8000f3a:	481d      	ldr	r0, [pc, #116]	; (8000fb0 <ABCM_vSysInit+0x1d0>)
 8000f3c:	f000 fe77 	bl	8001c2e <HDCM_turnOn>

	/* ##################################### Initialise IR sensors of the car ####################################################*/

	/* initialise Right IR sensor of car to be ready to use */
	HIR_uddtInit(&gl_uddtRightIr);
 8000f40:	481c      	ldr	r0, [pc, #112]	; (8000fb4 <ABCM_vSysInit+0x1d4>)
 8000f42:	f000 ff6d 	bl	8001e20 <HIR_uddtInit>
	/* initialise left IR sensor of car to be ready to use */
	HIR_uddtInit(&gl_uddtLeftIr);
 8000f46:	481c      	ldr	r0, [pc, #112]	; (8000fb8 <ABCM_vSysInit+0x1d8>)
 8000f48:	f000 ff6a 	bl	8001e20 <HIR_uddtInit>


	UltraSonic_Init();
 8000f4c:	f000 ffa6 	bl	8001e9c <UltraSonic_Init>

	MEXTI_enableEXTI(MEXTI_LINE4);
 8000f50:	2004      	movs	r0, #4
 8000f52:	f001 f827 	bl	8001fa4 <MEXTI_enableEXTI>
	MEXTI_enableEXTI(MEXTI_LINE5);
 8000f56:	2005      	movs	r0, #5
 8000f58:	f001 f824 	bl	8001fa4 <MEXTI_enableEXTI>

	MEXTI_setCallBack(leftcall,MEXTI_LINE4);
 8000f5c:	2104      	movs	r1, #4
 8000f5e:	4817      	ldr	r0, [pc, #92]	; (8000fbc <ABCM_vSysInit+0x1dc>)
 8000f60:	f001 f866 	bl	8002030 <MEXTI_setCallBack>
	MEXTI_setCallBack(rightcall,MEXTI_LINE5);
 8000f64:	2105      	movs	r1, #5
 8000f66:	4816      	ldr	r0, [pc, #88]	; (8000fc0 <ABCM_vSysInit+0x1e0>)
 8000f68:	f001 f862 	bl	8002030 <MEXTI_setCallBack>
}
 8000f6c:	bf00      	nop
 8000f6e:	3748      	adds	r7, #72	; 0x48
 8000f70:	46bd      	mov	sp, r7
 8000f72:	bd80      	pop	{r7, pc}
 8000f74:	08003218 	.word	0x08003218
 8000f78:	08003224 	.word	0x08003224
 8000f7c:	20000044 	.word	0x20000044
 8000f80:	40004400 	.word	0x40004400
 8000f84:	08000d39 	.word	0x08000d39
 8000f88:	08003230 	.word	0x08003230
 8000f8c:	0800323c 	.word	0x0800323c
 8000f90:	20000058 	.word	0x20000058
 8000f94:	40011400 	.word	0x40011400
 8000f98:	08003248 	.word	0x08003248
 8000f9c:	08003254 	.word	0x08003254
 8000fa0:	08000d79 	.word	0x08000d79
 8000fa4:	20000030 	.word	0x20000030
 8000fa8:	40011000 	.word	0x40011000
 8000fac:	20000000 	.word	0x20000000
 8000fb0:	20000010 	.word	0x20000010
 8000fb4:	20000020 	.word	0x20000020
 8000fb8:	20000028 	.word	0x20000028
 8000fbc:	08000db1 	.word	0x08000db1
 8000fc0:	08000dc9 	.word	0x08000dc9

08000fc4 <ABCM_vSysMangment>:
 * @param  : void
 * @return : void
 */

void ABCM_vSysMangment(void)
{
 8000fc4:	b580      	push	{r7, lr}
 8000fc6:	b082      	sub	sp, #8
 8000fc8:	af00      	add	r7, sp, #0
	while(1)
	{
		/*##############################################################################################*/

		UltraSonic_Send_Pulse();
 8000fca:	f000 ff87 	bl	8001edc <UltraSonic_Send_Pulse>
		gl_u32distance	= UltraSonic_Measure_Distance();
 8000fce:	f000 ff9b 	bl	8001f08 <UltraSonic_Measure_Distance>
 8000fd2:	4603      	mov	r3, r0
 8000fd4:	4aa0      	ldr	r2, [pc, #640]	; (8001258 <ABCM_vSysMangment+0x294>)
 8000fd6:	6013      	str	r3, [r2, #0]
		delay_us(620);
 8000fd8:	f44f 701b 	mov.w	r0, #620	; 0x26c
 8000fdc:	f000 ff48 	bl	8001e70 <delay_us>
		/*local variable to store the zone of AEB in it*/
		EN_AAEB_zones_t lo_uddtAebZone;
		/*Check the car zone */
		lo_uddtAebZone = AAEB_uddtCheckForObstacles(&gl_uddtRightDcm , &gl_uddtLeftDcm, gl_u32distance);
 8000fe0:	4b9d      	ldr	r3, [pc, #628]	; (8001258 <ABCM_vSysMangment+0x294>)
 8000fe2:	681b      	ldr	r3, [r3, #0]
 8000fe4:	461a      	mov	r2, r3
 8000fe6:	499d      	ldr	r1, [pc, #628]	; (800125c <ABCM_vSysMangment+0x298>)
 8000fe8:	489d      	ldr	r0, [pc, #628]	; (8001260 <ABCM_vSysMangment+0x29c>)
 8000fea:	f7ff fe81 	bl	8000cf0 <AAEB_uddtCheckForObstacles>
 8000fee:	4603      	mov	r3, r0
 8000ff0:	71fb      	strb	r3, [r7, #7]

		/*check if car zone is dangerous zone */
		if(lo_uddtAebZone == AAEB_DANGEROUS_ZONE)
 8000ff2:	79fb      	ldrb	r3, [r7, #7]
 8000ff4:	2b01      	cmp	r3, #1
 8000ff6:	d105      	bne.n	8001004 <ABCM_vSysMangment+0x40>
		{
			/* transmit a massage for the driver with UART */
			HHC05_uddtTransmitString(MUART1_PERIPHERAL,(uint8_t *)"Automatic Emergency Brake Is Active \r\n");
 8000ff8:	499a      	ldr	r1, [pc, #616]	; (8001264 <ABCM_vSysMangment+0x2a0>)
 8000ffa:	489b      	ldr	r0, [pc, #620]	; (8001268 <ABCM_vSysMangment+0x2a4>)
 8000ffc:	f000 fee0 	bl	8001dc0 <HHC05_uddtTransmitString>
			/*call function to handle the car in dangerous zone*/
			ABCM_vThreadMode();
 8001000:	f000 fbf8 	bl	80017f4 <ABCM_vThreadMode>
		}
		else{/*Do Nothing*/};

		if( ((gl_u8AccIsOnFlag == 1) || (gl_u8NccIsOnFlag == 1)) && (right == 1))
 8001004:	4b99      	ldr	r3, [pc, #612]	; (800126c <ABCM_vSysMangment+0x2a8>)
 8001006:	781b      	ldrb	r3, [r3, #0]
 8001008:	2b01      	cmp	r3, #1
 800100a:	d003      	beq.n	8001014 <ABCM_vSysMangment+0x50>
 800100c:	4b98      	ldr	r3, [pc, #608]	; (8001270 <ABCM_vSysMangment+0x2ac>)
 800100e:	781b      	ldrb	r3, [r3, #0]
 8001010:	2b01      	cmp	r3, #1
 8001012:	d111      	bne.n	8001038 <ABCM_vSysMangment+0x74>
 8001014:	4b97      	ldr	r3, [pc, #604]	; (8001274 <ABCM_vSysMangment+0x2b0>)
 8001016:	781b      	ldrb	r3, [r3, #0]
 8001018:	b2db      	uxtb	r3, r3
 800101a:	2b01      	cmp	r3, #1
 800101c:	d10c      	bne.n	8001038 <ABCM_vSysMangment+0x74>
		{
			MEXTI_disableEXTI(MEXTI_LINE4);
 800101e:	2004      	movs	r0, #4
 8001020:	f000 ffe2 	bl	8001fe8 <MEXTI_disableEXTI>
			ALKA_right(&gl_uddtRightIr, &gl_uddtLeftIr, &gl_uddtRightDcm, &gl_uddtLeftDcm);
 8001024:	4b8d      	ldr	r3, [pc, #564]	; (800125c <ABCM_vSysMangment+0x298>)
 8001026:	4a8e      	ldr	r2, [pc, #568]	; (8001260 <ABCM_vSysMangment+0x29c>)
 8001028:	4993      	ldr	r1, [pc, #588]	; (8001278 <ABCM_vSysMangment+0x2b4>)
 800102a:	4894      	ldr	r0, [pc, #592]	; (800127c <ABCM_vSysMangment+0x2b8>)
 800102c:	f000 fc2e 	bl	800188c <ALKA_right>
			MEXTI_enableEXTI(MEXTI_LINE4);
 8001030:	2004      	movs	r0, #4
 8001032:	f000 ffb7 	bl	8001fa4 <MEXTI_enableEXTI>
 8001036:	e01f      	b.n	8001078 <ABCM_vSysMangment+0xb4>
		}
		else if( ((gl_u8AccIsOnFlag == 1) || (gl_u8NccIsOnFlag == 1)) && (left == 1))
 8001038:	4b8c      	ldr	r3, [pc, #560]	; (800126c <ABCM_vSysMangment+0x2a8>)
 800103a:	781b      	ldrb	r3, [r3, #0]
 800103c:	2b01      	cmp	r3, #1
 800103e:	d003      	beq.n	8001048 <ABCM_vSysMangment+0x84>
 8001040:	4b8b      	ldr	r3, [pc, #556]	; (8001270 <ABCM_vSysMangment+0x2ac>)
 8001042:	781b      	ldrb	r3, [r3, #0]
 8001044:	2b01      	cmp	r3, #1
 8001046:	d111      	bne.n	800106c <ABCM_vSysMangment+0xa8>
 8001048:	4b8d      	ldr	r3, [pc, #564]	; (8001280 <ABCM_vSysMangment+0x2bc>)
 800104a:	781b      	ldrb	r3, [r3, #0]
 800104c:	b2db      	uxtb	r3, r3
 800104e:	2b01      	cmp	r3, #1
 8001050:	d10c      	bne.n	800106c <ABCM_vSysMangment+0xa8>
		{
			MEXTI_disableEXTI(MEXTI_LINE5);
 8001052:	2005      	movs	r0, #5
 8001054:	f000 ffc8 	bl	8001fe8 <MEXTI_disableEXTI>
			ALKA_right(&gl_uddtRightIr, &gl_uddtLeftIr, &gl_uddtRightDcm, &gl_uddtLeftDcm);
 8001058:	4b80      	ldr	r3, [pc, #512]	; (800125c <ABCM_vSysMangment+0x298>)
 800105a:	4a81      	ldr	r2, [pc, #516]	; (8001260 <ABCM_vSysMangment+0x29c>)
 800105c:	4986      	ldr	r1, [pc, #536]	; (8001278 <ABCM_vSysMangment+0x2b4>)
 800105e:	4887      	ldr	r0, [pc, #540]	; (800127c <ABCM_vSysMangment+0x2b8>)
 8001060:	f000 fc14 	bl	800188c <ALKA_right>
			MEXTI_enableEXTI(MEXTI_LINE5);
 8001064:	2005      	movs	r0, #5
 8001066:	f000 ff9d 	bl	8001fa4 <MEXTI_enableEXTI>
 800106a:	e005      	b.n	8001078 <ABCM_vSysMangment+0xb4>
		}
		else
		{
			ALKA_forward(&gl_uddtRightIr, &gl_uddtLeftIr, &gl_uddtRightDcm, &gl_uddtLeftDcm);
 800106c:	4b7b      	ldr	r3, [pc, #492]	; (800125c <ABCM_vSysMangment+0x298>)
 800106e:	4a7c      	ldr	r2, [pc, #496]	; (8001260 <ABCM_vSysMangment+0x29c>)
 8001070:	4981      	ldr	r1, [pc, #516]	; (8001278 <ABCM_vSysMangment+0x2b4>)
 8001072:	4882      	ldr	r0, [pc, #520]	; (800127c <ABCM_vSysMangment+0x2b8>)
 8001074:	f000 fc31 	bl	80018da <ALKA_forward>
		}

		/* switch to perform a action depend on the car state  */
		switch(gl_uddtCarCondation)
 8001078:	4b82      	ldr	r3, [pc, #520]	; (8001284 <ABCM_vSysMangment+0x2c0>)
 800107a:	781b      	ldrb	r3, [r3, #0]
 800107c:	2b0a      	cmp	r3, #10
 800107e:	d8a4      	bhi.n	8000fca <ABCM_vSysMangment+0x6>
 8001080:	a201      	add	r2, pc, #4	; (adr r2, 8001088 <ABCM_vSysMangment+0xc4>)
 8001082:	f852 f023 	ldr.w	pc, [r2, r3, lsl #2]
 8001086:	bf00      	nop
 8001088:	080010b5 	.word	0x080010b5
 800108c:	080010c7 	.word	0x080010c7
 8001090:	0800112f 	.word	0x0800112f
 8001094:	080010fb 	.word	0x080010fb
 8001098:	08001119 	.word	0x08001119
 800109c:	080010e7 	.word	0x080010e7
 80010a0:	0800114d 	.word	0x0800114d
 80010a4:	08001165 	.word	0x08001165
 80010a8:	080010d5 	.word	0x080010d5
 80010ac:	080012f5 	.word	0x080012f5
 80010b0:	0800117d 	.word	0x0800117d
		{
		case ABCM_CAR_STANDBY :
		{
			/* Show simple dash_board for car statues on UART */
			AUDI_vStandByDashboard(MUART1_PERIPHERAL);
 80010b4:	486c      	ldr	r0, [pc, #432]	; (8001268 <ABCM_vSysMangment+0x2a4>)
 80010b6:	f000 fcaf 	bl	8001a18 <AUDI_vStandByDashboard>
			/* Initialise AEB of the car */
			AAEB_vIsReady();
 80010ba:	f7ff fe0d 	bl	8000cd8 <AAEB_vIsReady>
			/* assign car state as ABCM_CAR_IDLE */
			gl_uddtCarCondation = ABCM_CAR_IDLE;
 80010be:	4b71      	ldr	r3, [pc, #452]	; (8001284 <ABCM_vSysMangment+0x2c0>)
 80010c0:	2208      	movs	r2, #8
 80010c2:	701a      	strb	r2, [r3, #0]
			/* break the switch */
			break;
 80010c4:	e12c      	b.n	8001320 <ABCM_vSysMangment+0x35c>
		}
		case ABCM_CAR_ON :
		{
			/* Show simple dash_board for car options on UART */
			AUDI_vOnDashboard(MUART1_PERIPHERAL);
 80010c6:	4868      	ldr	r0, [pc, #416]	; (8001268 <ABCM_vSysMangment+0x2a4>)
 80010c8:	f000 fce2 	bl	8001a90 <AUDI_vOnDashboard>
			/* assign car state as ABCM_CAR_IDLE */
			gl_uddtCarCondation = ABCM_CAR_IDLE;
 80010cc:	4b6d      	ldr	r3, [pc, #436]	; (8001284 <ABCM_vSysMangment+0x2c0>)
 80010ce:	2208      	movs	r2, #8
 80010d0:	701a      	strb	r2, [r3, #0]
			/* break the switch */
			break;
 80010d2:	e125      	b.n	8001320 <ABCM_vSysMangment+0x35c>
		}
		case ABCM_CAR_IDLE :
		{
			if(gl_u8AccIsOnFlag == 1)
 80010d4:	4b65      	ldr	r3, [pc, #404]	; (800126c <ABCM_vSysMangment+0x2a8>)
 80010d6:	781b      	ldrb	r3, [r3, #0]
 80010d8:	2b01      	cmp	r3, #1
 80010da:	f040 811e 	bne.w	800131a <ABCM_vSysMangment+0x356>
			{
				gl_uddtCarCondation = ABCM_CAR_ACC_ACTIVE;
 80010de:	4b69      	ldr	r3, [pc, #420]	; (8001284 <ABCM_vSysMangment+0x2c0>)
 80010e0:	2204      	movs	r2, #4
 80010e2:	701a      	strb	r2, [r3, #0]
			}
			/* break the switch */
			break;
 80010e4:	e119      	b.n	800131a <ABCM_vSysMangment+0x356>
		}
		case ABCM_CAR_GET_FAULT :
		{
			/* send the action to function that determine the fault & what to do */
			gl_uddtCarCondation = ABCM_uddtFaultDetection(gl_uddtFaultCode);
 80010e6:	4b68      	ldr	r3, [pc, #416]	; (8001288 <ABCM_vSysMangment+0x2c4>)
 80010e8:	781b      	ldrb	r3, [r3, #0]
 80010ea:	4618      	mov	r0, r3
 80010ec:	f000 fae4 	bl	80016b8 <ABCM_uddtFaultDetection>
 80010f0:	4603      	mov	r3, r0
 80010f2:	461a      	mov	r2, r3
 80010f4:	4b63      	ldr	r3, [pc, #396]	; (8001284 <ABCM_vSysMangment+0x2c0>)
 80010f6:	701a      	strb	r2, [r3, #0]
			/* break the switch */
			break;
 80010f8:	e112      	b.n	8001320 <ABCM_vSysMangment+0x35c>
		}
		case ABCM_CAR_ACC_SET :
		{
			/* call function that will control the ACC and pass to it the motors strut and wanted speed */
			AACC_vSetSpeedLimit(&gl_uddtRightDcm ,&gl_uddtLeftDcm ,gl_u8AccSpeedLimit);
 80010fa:	4b64      	ldr	r3, [pc, #400]	; (800128c <ABCM_vSysMangment+0x2c8>)
 80010fc:	781b      	ldrb	r3, [r3, #0]
 80010fe:	461a      	mov	r2, r3
 8001100:	4956      	ldr	r1, [pc, #344]	; (800125c <ABCM_vSysMangment+0x298>)
 8001102:	4857      	ldr	r0, [pc, #348]	; (8001260 <ABCM_vSysMangment+0x29c>)
 8001104:	f7ff fc56 	bl	80009b4 <AACC_vSetSpeedLimit>
			/* transmit a massage for the driver with UART */
			HHC05_uddtTransmitString(MUART1_PERIPHERAL,(uint8_t *)"To Stop Acc In Any Time Press z \r\n");
 8001108:	4961      	ldr	r1, [pc, #388]	; (8001290 <ABCM_vSysMangment+0x2cc>)
 800110a:	4857      	ldr	r0, [pc, #348]	; (8001268 <ABCM_vSysMangment+0x2a4>)
 800110c:	f000 fe58 	bl	8001dc0 <HHC05_uddtTransmitString>
			/* assign car state as ABCM_CAR_ACC_ACTIVE */
			gl_uddtCarCondation = ABCM_CAR_ACC_ACTIVE;
 8001110:	4b5c      	ldr	r3, [pc, #368]	; (8001284 <ABCM_vSysMangment+0x2c0>)
 8001112:	2204      	movs	r2, #4
 8001114:	701a      	strb	r2, [r3, #0]
			/* break the switch */
			break;
 8001116:	e103      	b.n	8001320 <ABCM_vSysMangment+0x35c>
		}
		case ABCM_CAR_ACC_ACTIVE :
		{
			/* call function that will control the ACC and pass to it the motors strut & LIDAR reading of distance */
			AACC_vControlingCar(&gl_uddtRightDcm ,&gl_uddtLeftDcm ,gl_u32distance);
 8001118:	4b4f      	ldr	r3, [pc, #316]	; (8001258 <ABCM_vSysMangment+0x294>)
 800111a:	681b      	ldr	r3, [r3, #0]
 800111c:	461a      	mov	r2, r3
 800111e:	494f      	ldr	r1, [pc, #316]	; (800125c <ABCM_vSysMangment+0x298>)
 8001120:	484f      	ldr	r0, [pc, #316]	; (8001260 <ABCM_vSysMangment+0x29c>)
 8001122:	f7ff fc6f 	bl	8000a04 <AACC_vControlingCar>
			/* assign car state as ABCM_CAR_IDLE */
			gl_uddtCarCondation = ABCM_CAR_IDLE;
 8001126:	4b57      	ldr	r3, [pc, #348]	; (8001284 <ABCM_vSysMangment+0x2c0>)
 8001128:	2208      	movs	r2, #8
 800112a:	701a      	strb	r2, [r3, #0]
			/* break the switch */
			break;
 800112c:	e0f8      	b.n	8001320 <ABCM_vSysMangment+0x35c>
		}
		case ABCM_CAR_NCC_ACTIVE :
		{
			/* call function that will control the NCC and pass to it the motors strut and wanted speed */
			ANCC_vStartNcc(&gl_uddtRightDcm ,&gl_uddtLeftDcm , gl_u8NccSpeedLimit);
 800112e:	4b59      	ldr	r3, [pc, #356]	; (8001294 <ABCM_vSysMangment+0x2d0>)
 8001130:	781b      	ldrb	r3, [r3, #0]
 8001132:	461a      	mov	r2, r3
 8001134:	4949      	ldr	r1, [pc, #292]	; (800125c <ABCM_vSysMangment+0x298>)
 8001136:	484a      	ldr	r0, [pc, #296]	; (8001260 <ABCM_vSysMangment+0x29c>)
 8001138:	f000 fbf6 	bl	8001928 <ANCC_vStartNcc>
			/* transmit a massage for the driver with UART */
			HHC05_uddtTransmitString(MUART1_PERIPHERAL,(uint8_t *)"To Stop Ncc In Any Time Press k \r\n");
 800113c:	4956      	ldr	r1, [pc, #344]	; (8001298 <ABCM_vSysMangment+0x2d4>)
 800113e:	484a      	ldr	r0, [pc, #296]	; (8001268 <ABCM_vSysMangment+0x2a4>)
 8001140:	f000 fe3e 	bl	8001dc0 <HHC05_uddtTransmitString>
			/* assign car state as ABCM_CAR_RECVINIG */
			gl_uddtCarCondation = ABCM_CAR_IDLE;
 8001144:	4b4f      	ldr	r3, [pc, #316]	; (8001284 <ABCM_vSysMangment+0x2c0>)
 8001146:	2208      	movs	r2, #8
 8001148:	701a      	strb	r2, [r3, #0]
			/* break the switch */
			break;
 800114a:	e0e9      	b.n	8001320 <ABCM_vSysMangment+0x35c>
		}
		case ABCM_CAR_NCC_OFF :
		{
			/* call function that will stop the NCC and pass to it the motors strut */
			ANCC_vStopNcc(&gl_uddtRightDcm , &gl_uddtLeftDcm);
 800114c:	4943      	ldr	r1, [pc, #268]	; (800125c <ABCM_vSysMangment+0x298>)
 800114e:	4844      	ldr	r0, [pc, #272]	; (8001260 <ABCM_vSysMangment+0x29c>)
 8001150:	f000 fc0c 	bl	800196c <ANCC_vStopNcc>
			/* transmit a massage for the driver with UART */
			HHC05_uddtTransmitString(MUART1_PERIPHERAL,(uint8_t *)"Ncc Is Stopped \r\n");
 8001154:	4951      	ldr	r1, [pc, #324]	; (800129c <ABCM_vSysMangment+0x2d8>)
 8001156:	4844      	ldr	r0, [pc, #272]	; (8001268 <ABCM_vSysMangment+0x2a4>)
 8001158:	f000 fe32 	bl	8001dc0 <HHC05_uddtTransmitString>
			/* assign car state as ABCM_CAR_ON */
			gl_uddtCarCondation = ABCM_CAR_ON;
 800115c:	4b49      	ldr	r3, [pc, #292]	; (8001284 <ABCM_vSysMangment+0x2c0>)
 800115e:	2201      	movs	r2, #1
 8001160:	701a      	strb	r2, [r3, #0]
			/* break the switch */
			break;
 8001162:	e0dd      	b.n	8001320 <ABCM_vSysMangment+0x35c>
		}
		case ABCM_CAR_ACC_OFF :
		{
			/* call function that will stop the ACC and pass to it the motors strut */
			AACC_vStopAcc(&gl_uddtRightDcm , &gl_uddtLeftDcm);
 8001164:	493d      	ldr	r1, [pc, #244]	; (800125c <ABCM_vSysMangment+0x298>)
 8001166:	483e      	ldr	r0, [pc, #248]	; (8001260 <ABCM_vSysMangment+0x29c>)
 8001168:	f7ff fd7a 	bl	8000c60 <AACC_vStopAcc>
			/* transmit a massage for the driver with UART */
			HHC05_uddtTransmitString(MUART1_PERIPHERAL,(uint8_t *)"Acc Is Stopped \r\n");
 800116c:	494c      	ldr	r1, [pc, #304]	; (80012a0 <ABCM_vSysMangment+0x2dc>)
 800116e:	483e      	ldr	r0, [pc, #248]	; (8001268 <ABCM_vSysMangment+0x2a4>)
 8001170:	f000 fe26 	bl	8001dc0 <HHC05_uddtTransmitString>
			/* assign car state as ABCM_CAR_ON */
			gl_uddtCarCondation = ABCM_CAR_ON;
 8001174:	4b43      	ldr	r3, [pc, #268]	; (8001284 <ABCM_vSysMangment+0x2c0>)
 8001176:	2201      	movs	r2, #1
 8001178:	701a      	strb	r2, [r3, #0]
			/* break the switch */
			break;
 800117a:	e0d1      	b.n	8001320 <ABCM_vSysMangment+0x35c>
		}
		case ABCM_CHANGE_SPEED_LIMIT :
		{
			/* check if the NCC is on */
			if(gl_u8NccIsOnFlag == 1)
 800117c:	4b3c      	ldr	r3, [pc, #240]	; (8001270 <ABCM_vSysMangment+0x2ac>)
 800117e:	781b      	ldrb	r3, [r3, #0]
 8001180:	2b01      	cmp	r3, #1
 8001182:	d141      	bne.n	8001208 <ABCM_vSysMangment+0x244>
			{
				if(((gl_u8NccSpeedLimit < gl_u8CarDefaultMaxSpeed) && (gl_u8IncSpeedFlag == 1)) ||
 8001184:	4b43      	ldr	r3, [pc, #268]	; (8001294 <ABCM_vSysMangment+0x2d0>)
 8001186:	781a      	ldrb	r2, [r3, #0]
 8001188:	4b46      	ldr	r3, [pc, #280]	; (80012a4 <ABCM_vSysMangment+0x2e0>)
 800118a:	781b      	ldrb	r3, [r3, #0]
 800118c:	429a      	cmp	r2, r3
 800118e:	d203      	bcs.n	8001198 <ABCM_vSysMangment+0x1d4>
 8001190:	4b45      	ldr	r3, [pc, #276]	; (80012a8 <ABCM_vSysMangment+0x2e4>)
 8001192:	781b      	ldrb	r3, [r3, #0]
 8001194:	2b01      	cmp	r3, #1
 8001196:	d009      	beq.n	80011ac <ABCM_vSysMangment+0x1e8>
						((gl_u8NccSpeedLimit > gl_u8CarDefaultMinSpeed) && (gl_u8DecSpeedFlag == 1)))
 8001198:	4b3e      	ldr	r3, [pc, #248]	; (8001294 <ABCM_vSysMangment+0x2d0>)
 800119a:	781a      	ldrb	r2, [r3, #0]
 800119c:	4b43      	ldr	r3, [pc, #268]	; (80012ac <ABCM_vSysMangment+0x2e8>)
 800119e:	781b      	ldrb	r3, [r3, #0]
				if(((gl_u8NccSpeedLimit < gl_u8CarDefaultMaxSpeed) && (gl_u8IncSpeedFlag == 1)) ||
 80011a0:	429a      	cmp	r2, r3
 80011a2:	d924      	bls.n	80011ee <ABCM_vSysMangment+0x22a>
						((gl_u8NccSpeedLimit > gl_u8CarDefaultMinSpeed) && (gl_u8DecSpeedFlag == 1)))
 80011a4:	4b42      	ldr	r3, [pc, #264]	; (80012b0 <ABCM_vSysMangment+0x2ec>)
 80011a6:	781b      	ldrb	r3, [r3, #0]
 80011a8:	2b01      	cmp	r3, #1
 80011aa:	d120      	bne.n	80011ee <ABCM_vSysMangment+0x22a>
				{
					/* check if the change is INC or DEC*/
					if(gl_u8IncSpeedFlag == 1)
 80011ac:	4b3e      	ldr	r3, [pc, #248]	; (80012a8 <ABCM_vSysMangment+0x2e4>)
 80011ae:	781b      	ldrb	r3, [r3, #0]
 80011b0:	2b01      	cmp	r3, #1
 80011b2:	d10a      	bne.n	80011ca <ABCM_vSysMangment+0x206>
					{
						/* call function that will change NCC speed limit and pass to it the action to take on the speed */
						gl_u8NccSpeedLimit = ANCC_vChangeNccSpeedLimit('+');
 80011b4:	202b      	movs	r0, #43	; 0x2b
 80011b6:	f000 fbeb 	bl	8001990 <ANCC_vChangeNccSpeedLimit>
 80011ba:	4603      	mov	r3, r0
 80011bc:	461a      	mov	r2, r3
 80011be:	4b35      	ldr	r3, [pc, #212]	; (8001294 <ABCM_vSysMangment+0x2d0>)
 80011c0:	701a      	strb	r2, [r3, #0]
						/* clear the gl_u8IncSpeedFlag (global flag) to indicate all of the system that the speed is changed */
						gl_u8IncSpeedFlag = 0;
 80011c2:	4b39      	ldr	r3, [pc, #228]	; (80012a8 <ABCM_vSysMangment+0x2e4>)
 80011c4:	2200      	movs	r2, #0
 80011c6:	701a      	strb	r2, [r3, #0]
 80011c8:	e00d      	b.n	80011e6 <ABCM_vSysMangment+0x222>
					}
					else if(gl_u8DecSpeedFlag == 1)
 80011ca:	4b39      	ldr	r3, [pc, #228]	; (80012b0 <ABCM_vSysMangment+0x2ec>)
 80011cc:	781b      	ldrb	r3, [r3, #0]
 80011ce:	2b01      	cmp	r3, #1
 80011d0:	d109      	bne.n	80011e6 <ABCM_vSysMangment+0x222>
					{
						/* call function that will change NCC speed limit and pass to it the action to take on the speed */
						gl_u8NccSpeedLimit = ANCC_vChangeNccSpeedLimit('-');
 80011d2:	202d      	movs	r0, #45	; 0x2d
 80011d4:	f000 fbdc 	bl	8001990 <ANCC_vChangeNccSpeedLimit>
 80011d8:	4603      	mov	r3, r0
 80011da:	461a      	mov	r2, r3
 80011dc:	4b2d      	ldr	r3, [pc, #180]	; (8001294 <ABCM_vSysMangment+0x2d0>)
 80011de:	701a      	strb	r2, [r3, #0]
						/* clear the gl_u8DecSpeedFlag (global flag) to indicate all of the system that the speed is changed */
						gl_u8DecSpeedFlag = 0;
 80011e0:	4b33      	ldr	r3, [pc, #204]	; (80012b0 <ABCM_vSysMangment+0x2ec>)
 80011e2:	2200      	movs	r2, #0
 80011e4:	701a      	strb	r2, [r3, #0]
					}
					else{/* Do Nothing */};
					/* assign car state as ABCM_CAR_IDLE */
					gl_uddtCarCondation = ABCM_CAR_IDLE;
 80011e6:	4b27      	ldr	r3, [pc, #156]	; (8001284 <ABCM_vSysMangment+0x2c0>)
 80011e8:	2208      	movs	r2, #8
 80011ea:	701a      	strb	r2, [r3, #0]
 80011ec:	e081      	b.n	80012f2 <ABCM_vSysMangment+0x32e>
				}
				else
				{
					gl_u8IncSpeedFlag = 0;
 80011ee:	4b2e      	ldr	r3, [pc, #184]	; (80012a8 <ABCM_vSysMangment+0x2e4>)
 80011f0:	2200      	movs	r2, #0
 80011f2:	701a      	strb	r2, [r3, #0]
					gl_u8DecSpeedFlag = 0;
 80011f4:	4b2e      	ldr	r3, [pc, #184]	; (80012b0 <ABCM_vSysMangment+0x2ec>)
 80011f6:	2200      	movs	r2, #0
 80011f8:	701a      	strb	r2, [r3, #0]
					/* invalid range assign fault code in gl_uddtFaultCode (global variable) to notify driver */
					gl_uddtFaultCode = ABCM_FAULT_SPEED_RANGE_INVALID;
 80011fa:	4b23      	ldr	r3, [pc, #140]	; (8001288 <ABCM_vSysMangment+0x2c4>)
 80011fc:	2207      	movs	r2, #7
 80011fe:	701a      	strb	r2, [r3, #0]
					/* assign car state as ABCM_CAR_GET_FAULT */
					gl_uddtCarCondation = ABCM_CAR_GET_FAULT;
 8001200:	4b20      	ldr	r3, [pc, #128]	; (8001284 <ABCM_vSysMangment+0x2c0>)
 8001202:	2205      	movs	r2, #5
 8001204:	701a      	strb	r2, [r3, #0]
					gl_uddtFaultCode = ABCM_FAULT_SPEED_RANGE_INVALID;
					/* assign car state as ABCM_CAR_GET_FAULT */
					gl_uddtCarCondation = ABCM_CAR_GET_FAULT;
				}
			}
			break;
 8001206:	e08a      	b.n	800131e <ABCM_vSysMangment+0x35a>
			else if(gl_u8AccIsOnFlag == 1)
 8001208:	4b18      	ldr	r3, [pc, #96]	; (800126c <ABCM_vSysMangment+0x2a8>)
 800120a:	781b      	ldrb	r3, [r3, #0]
 800120c:	2b01      	cmp	r3, #1
 800120e:	f040 8086 	bne.w	800131e <ABCM_vSysMangment+0x35a>
				if(((gl_u8AccSpeedLimit < gl_u8CarDefaultMaxSpeed) && (gl_u8IncSpeedFlag == 1)) ||
 8001212:	4b1e      	ldr	r3, [pc, #120]	; (800128c <ABCM_vSysMangment+0x2c8>)
 8001214:	781a      	ldrb	r2, [r3, #0]
 8001216:	4b23      	ldr	r3, [pc, #140]	; (80012a4 <ABCM_vSysMangment+0x2e0>)
 8001218:	781b      	ldrb	r3, [r3, #0]
 800121a:	429a      	cmp	r2, r3
 800121c:	d203      	bcs.n	8001226 <ABCM_vSysMangment+0x262>
 800121e:	4b22      	ldr	r3, [pc, #136]	; (80012a8 <ABCM_vSysMangment+0x2e4>)
 8001220:	781b      	ldrb	r3, [r3, #0]
 8001222:	2b01      	cmp	r3, #1
 8001224:	d009      	beq.n	800123a <ABCM_vSysMangment+0x276>
						((gl_u8AccSpeedLimit > gl_u8CarDefaultMinSpeed) && (gl_u8DecSpeedFlag == 1)))
 8001226:	4b19      	ldr	r3, [pc, #100]	; (800128c <ABCM_vSysMangment+0x2c8>)
 8001228:	781a      	ldrb	r2, [r3, #0]
 800122a:	4b20      	ldr	r3, [pc, #128]	; (80012ac <ABCM_vSysMangment+0x2e8>)
 800122c:	781b      	ldrb	r3, [r3, #0]
				if(((gl_u8AccSpeedLimit < gl_u8CarDefaultMaxSpeed) && (gl_u8IncSpeedFlag == 1)) ||
 800122e:	429a      	cmp	r2, r3
 8001230:	d952      	bls.n	80012d8 <ABCM_vSysMangment+0x314>
						((gl_u8AccSpeedLimit > gl_u8CarDefaultMinSpeed) && (gl_u8DecSpeedFlag == 1)))
 8001232:	4b1f      	ldr	r3, [pc, #124]	; (80012b0 <ABCM_vSysMangment+0x2ec>)
 8001234:	781b      	ldrb	r3, [r3, #0]
 8001236:	2b01      	cmp	r3, #1
 8001238:	d14e      	bne.n	80012d8 <ABCM_vSysMangment+0x314>
					if(gl_u8IncSpeedFlag == 1)
 800123a:	4b1b      	ldr	r3, [pc, #108]	; (80012a8 <ABCM_vSysMangment+0x2e4>)
 800123c:	781b      	ldrb	r3, [r3, #0]
 800123e:	2b01      	cmp	r3, #1
 8001240:	d138      	bne.n	80012b4 <ABCM_vSysMangment+0x2f0>
						gl_u8AccSpeedLimit = AACC_vChangeAccSpeedLimit('+');
 8001242:	202b      	movs	r0, #43	; 0x2b
 8001244:	f7ff fd24 	bl	8000c90 <AACC_vChangeAccSpeedLimit>
 8001248:	4603      	mov	r3, r0
 800124a:	461a      	mov	r2, r3
 800124c:	4b0f      	ldr	r3, [pc, #60]	; (800128c <ABCM_vSysMangment+0x2c8>)
 800124e:	701a      	strb	r2, [r3, #0]
						gl_u8IncSpeedFlag = 0;
 8001250:	4b15      	ldr	r3, [pc, #84]	; (80012a8 <ABCM_vSysMangment+0x2e4>)
 8001252:	2200      	movs	r2, #0
 8001254:	701a      	strb	r2, [r3, #0]
 8001256:	e03b      	b.n	80012d0 <ABCM_vSysMangment+0x30c>
 8001258:	20000098 	.word	0x20000098
 800125c:	20000010 	.word	0x20000010
 8001260:	20000000 	.word	0x20000000
 8001264:	08003260 	.word	0x08003260
 8001268:	40011000 	.word	0x40011000
 800126c:	200000a0 	.word	0x200000a0
 8001270:	2000009f 	.word	0x2000009f
 8001274:	200000a5 	.word	0x200000a5
 8001278:	20000028 	.word	0x20000028
 800127c:	20000020 	.word	0x20000020
 8001280:	200000a4 	.word	0x200000a4
 8001284:	20000095 	.word	0x20000095
 8001288:	20000094 	.word	0x20000094
 800128c:	2000006d 	.word	0x2000006d
 8001290:	08003288 	.word	0x08003288
 8001294:	2000006e 	.word	0x2000006e
 8001298:	080032ac 	.word	0x080032ac
 800129c:	080032d0 	.word	0x080032d0
 80012a0:	080032e4 	.word	0x080032e4
 80012a4:	2000006c 	.word	0x2000006c
 80012a8:	2000009c 	.word	0x2000009c
 80012ac:	20000096 	.word	0x20000096
 80012b0:	2000009d 	.word	0x2000009d
					else if(gl_u8DecSpeedFlag == 1)
 80012b4:	4b1b      	ldr	r3, [pc, #108]	; (8001324 <ABCM_vSysMangment+0x360>)
 80012b6:	781b      	ldrb	r3, [r3, #0]
 80012b8:	2b01      	cmp	r3, #1
 80012ba:	d109      	bne.n	80012d0 <ABCM_vSysMangment+0x30c>
						gl_u8AccSpeedLimit = AACC_vChangeAccSpeedLimit('-');
 80012bc:	202d      	movs	r0, #45	; 0x2d
 80012be:	f7ff fce7 	bl	8000c90 <AACC_vChangeAccSpeedLimit>
 80012c2:	4603      	mov	r3, r0
 80012c4:	461a      	mov	r2, r3
 80012c6:	4b18      	ldr	r3, [pc, #96]	; (8001328 <ABCM_vSysMangment+0x364>)
 80012c8:	701a      	strb	r2, [r3, #0]
						gl_u8DecSpeedFlag = 0;
 80012ca:	4b16      	ldr	r3, [pc, #88]	; (8001324 <ABCM_vSysMangment+0x360>)
 80012cc:	2200      	movs	r2, #0
 80012ce:	701a      	strb	r2, [r3, #0]
					gl_uddtCarCondation = ABCM_CAR_IDLE;
 80012d0:	4b16      	ldr	r3, [pc, #88]	; (800132c <ABCM_vSysMangment+0x368>)
 80012d2:	2208      	movs	r2, #8
 80012d4:	701a      	strb	r2, [r3, #0]
 80012d6:	e00c      	b.n	80012f2 <ABCM_vSysMangment+0x32e>
					gl_u8IncSpeedFlag = 0;
 80012d8:	4b15      	ldr	r3, [pc, #84]	; (8001330 <ABCM_vSysMangment+0x36c>)
 80012da:	2200      	movs	r2, #0
 80012dc:	701a      	strb	r2, [r3, #0]
					gl_u8DecSpeedFlag = 0;
 80012de:	4b11      	ldr	r3, [pc, #68]	; (8001324 <ABCM_vSysMangment+0x360>)
 80012e0:	2200      	movs	r2, #0
 80012e2:	701a      	strb	r2, [r3, #0]
					gl_uddtFaultCode = ABCM_FAULT_SPEED_RANGE_INVALID;
 80012e4:	4b13      	ldr	r3, [pc, #76]	; (8001334 <ABCM_vSysMangment+0x370>)
 80012e6:	2207      	movs	r2, #7
 80012e8:	701a      	strb	r2, [r3, #0]
					gl_uddtCarCondation = ABCM_CAR_GET_FAULT;
 80012ea:	4b10      	ldr	r3, [pc, #64]	; (800132c <ABCM_vSysMangment+0x368>)
 80012ec:	2205      	movs	r2, #5
 80012ee:	701a      	strb	r2, [r3, #0]
			break;
 80012f0:	e015      	b.n	800131e <ABCM_vSysMangment+0x35a>
 80012f2:	e014      	b.n	800131e <ABCM_vSysMangment+0x35a>
		}
		case ABCM_UPDATE_FIRMWARE :
		{
			/* transmit a massage for the driver with UART with fault code & short description about it*/
			MUSART_uddtTransmitString(MUART1_PERIPHERAL,(uint8_t *)"Car Will Stop For Update Firmware\r\n");
 80012f4:	4910      	ldr	r1, [pc, #64]	; (8001338 <ABCM_vSysMangment+0x374>)
 80012f6:	4811      	ldr	r0, [pc, #68]	; (800133c <ABCM_vSysMangment+0x378>)
 80012f8:	f001 fde9 	bl	8002ece <MUSART_uddtTransmitString>
			/* clear gl_u8NewFirmwareFlag */
			gl_u8NewFirmwareFlag = 0;
 80012fc:	4b10      	ldr	r3, [pc, #64]	; (8001340 <ABCM_vSysMangment+0x37c>)
 80012fe:	2200      	movs	r2, #0
 8001300:	701a      	strb	r2, [r3, #0]
			/* Set the pointer to the end of vector table (startup code of boot-loader) */
			AddressToCall = *(BL_Call_t*)0x8004004;
 8001302:	4b10      	ldr	r3, [pc, #64]	; (8001344 <ABCM_vSysMangment+0x380>)
 8001304:	681b      	ldr	r3, [r3, #0]
 8001306:	4a10      	ldr	r2, [pc, #64]	; (8001348 <ABCM_vSysMangment+0x384>)
 8001308:	6013      	str	r3, [r2, #0]
			MUSART_uddtTransmitByte(MUART2_PERIPHERAL,'q');
 800130a:	2171      	movs	r1, #113	; 0x71
 800130c:	480f      	ldr	r0, [pc, #60]	; (800134c <ABCM_vSysMangment+0x388>)
 800130e:	f001 fdae 	bl	8002e6e <MUSART_uddtTransmitByte>
			AddressToCall();
 8001312:	4b0d      	ldr	r3, [pc, #52]	; (8001348 <ABCM_vSysMangment+0x384>)
 8001314:	681b      	ldr	r3, [r3, #0]
 8001316:	4798      	blx	r3
			/* break the switch */
			break;
 8001318:	e002      	b.n	8001320 <ABCM_vSysMangment+0x35c>
			break;
 800131a:	bf00      	nop
 800131c:	e655      	b.n	8000fca <ABCM_vSysMangment+0x6>
			break;
 800131e:	bf00      	nop
	{
 8001320:	e653      	b.n	8000fca <ABCM_vSysMangment+0x6>
 8001322:	bf00      	nop
 8001324:	2000009d 	.word	0x2000009d
 8001328:	2000006d 	.word	0x2000006d
 800132c:	20000095 	.word	0x20000095
 8001330:	2000009c 	.word	0x2000009c
 8001334:	20000094 	.word	0x20000094
 8001338:	080032f8 	.word	0x080032f8
 800133c:	40011000 	.word	0x40011000
 8001340:	200000a1 	.word	0x200000a1
 8001344:	08004004 	.word	0x08004004
 8001348:	20000090 	.word	0x20000090
 800134c:	40004400 	.word	0x40004400

08001350 <ABCM_uddtDetermineCarState>:
 * @param copy_u8Action
 * @return EN_ABCM_carStates_t
 */

EN_ABCM_carStates_t ABCM_uddtDetermineCarState(uint8_t copy_u8Action)
{
 8001350:	b580      	push	{r7, lr}
 8001352:	b084      	sub	sp, #16
 8001354:	af00      	add	r7, sp, #0
 8001356:	4603      	mov	r3, r0
 8001358:	71fb      	strb	r3, [r7, #7]
	/* local variable store return of the function */
	EN_ABCM_carStates_t ret;

	/* switch to know what to return depend on the driver choice */
	switch(copy_u8Action)
 800135a:	79fb      	ldrb	r3, [r7, #7]
 800135c:	2b7a      	cmp	r3, #122	; 0x7a
 800135e:	f300 8193 	bgt.w	8001688 <ABCM_uddtDetermineCarState+0x338>
 8001362:	2b61      	cmp	r3, #97	; 0x61
 8001364:	da06      	bge.n	8001374 <ABCM_uddtDetermineCarState+0x24>
 8001366:	2b2b      	cmp	r3, #43	; 0x2b
 8001368:	f000 8143 	beq.w	80015f2 <ABCM_uddtDetermineCarState+0x2a2>
 800136c:	2b2d      	cmp	r3, #45	; 0x2d
 800136e:	f000 8140 	beq.w	80015f2 <ABCM_uddtDetermineCarState+0x2a2>
 8001372:	e189      	b.n	8001688 <ABCM_uddtDetermineCarState+0x338>
 8001374:	3b61      	subs	r3, #97	; 0x61
 8001376:	2b19      	cmp	r3, #25
 8001378:	f200 8186 	bhi.w	8001688 <ABCM_uddtDetermineCarState+0x338>
 800137c:	a201      	add	r2, pc, #4	; (adr r2, 8001384 <ABCM_uddtDetermineCarState+0x34>)
 800137e:	f852 f023 	ldr.w	pc, [r2, r3, lsl #2]
 8001382:	bf00      	nop
 8001384:	08001469 	.word	0x08001469
 8001388:	08001689 	.word	0x08001689
 800138c:	08001689 	.word	0x08001689
 8001390:	08001689 	.word	0x08001689
 8001394:	08001689 	.word	0x08001689
 8001398:	08001689 	.word	0x08001689
 800139c:	08001689 	.word	0x08001689
 80013a0:	08001689 	.word	0x08001689
 80013a4:	08001689 	.word	0x08001689
 80013a8:	0800159d 	.word	0x0800159d
 80013ac:	0800150d 	.word	0x0800150d
 80013b0:	08001689 	.word	0x08001689
 80013b4:	08001689 	.word	0x08001689
 80013b8:	08001417 	.word	0x08001417
 80013bc:	080013ed 	.word	0x080013ed
 80013c0:	08001689 	.word	0x08001689
 80013c4:	08001689 	.word	0x08001689
 80013c8:	08001689 	.word	0x08001689
 80013cc:	080014bb 	.word	0x080014bb
 80013d0:	08001689 	.word	0x08001689
 80013d4:	08001689 	.word	0x08001689
 80013d8:	08001689 	.word	0x08001689
 80013dc:	08001689 	.word	0x08001689
 80013e0:	08001689 	.word	0x08001689
 80013e4:	08001689 	.word	0x08001689
 80013e8:	08001555 	.word	0x08001555
	{
	case 'o' :  /* choice o : mean to turn on car */
	{
		/* check if the car is off  */
		if(gl_u8CarIsOnFlag == 0)
 80013ec:	4b9f      	ldr	r3, [pc, #636]	; (800166c <ABCM_uddtDetermineCarState+0x31c>)
 80013ee:	781b      	ldrb	r3, [r3, #0]
 80013f0:	2b00      	cmp	r3, #0
 80013f2:	d105      	bne.n	8001400 <ABCM_uddtDetermineCarState+0xb0>
		{
			/* set the gl_u8CarIsOnFlag (global flag) to indicate all of the system that the car is on */
			gl_u8CarIsOnFlag = 1;
 80013f4:	4b9d      	ldr	r3, [pc, #628]	; (800166c <ABCM_uddtDetermineCarState+0x31c>)
 80013f6:	2201      	movs	r2, #1
 80013f8:	701a      	strb	r2, [r3, #0]
			/* return to ABCM_CAR_ON state */
			ret = ABCM_CAR_ON;
 80013fa:	2301      	movs	r3, #1
 80013fc:	73fb      	strb	r3, [r7, #15]
			/* return to ABCM_CAR_GET_FAULT state */
			ret = ABCM_CAR_GET_FAULT;
		}
		else {/* DO Nothing */};
		/* break the switch */
		break;
 80013fe:	e149      	b.n	8001694 <ABCM_uddtDetermineCarState+0x344>
		else if(gl_u8CarIsOnFlag == 1)
 8001400:	4b9a      	ldr	r3, [pc, #616]	; (800166c <ABCM_uddtDetermineCarState+0x31c>)
 8001402:	781b      	ldrb	r3, [r3, #0]
 8001404:	2b01      	cmp	r3, #1
 8001406:	f040 8145 	bne.w	8001694 <ABCM_uddtDetermineCarState+0x344>
			gl_uddtFaultCode = ABCM_FAULT_CAR_IS_ALREADY_ON;
 800140a:	4b99      	ldr	r3, [pc, #612]	; (8001670 <ABCM_uddtDetermineCarState+0x320>)
 800140c:	2201      	movs	r2, #1
 800140e:	701a      	strb	r2, [r3, #0]
			ret = ABCM_CAR_GET_FAULT;
 8001410:	2305      	movs	r3, #5
 8001412:	73fb      	strb	r3, [r7, #15]
		break;
 8001414:	e13e      	b.n	8001694 <ABCM_uddtDetermineCarState+0x344>
	}
	case 'n' : 	/* choice n : mean to turn on NCC */
	{
		/* check if the NCC is off  */
		if(gl_u8NccIsOnFlag == 0)
 8001416:	4b97      	ldr	r3, [pc, #604]	; (8001674 <ABCM_uddtDetermineCarState+0x324>)
 8001418:	781b      	ldrb	r3, [r3, #0]
 800141a:	2b00      	cmp	r3, #0
 800141c:	d119      	bne.n	8001452 <ABCM_uddtDetermineCarState+0x102>
		{
			/* check if the car is on */
			if(gl_u8CarIsOnFlag == 1 )
 800141e:	4b93      	ldr	r3, [pc, #588]	; (800166c <ABCM_uddtDetermineCarState+0x31c>)
 8001420:	781b      	ldrb	r3, [r3, #0]
 8001422:	2b01      	cmp	r3, #1
 8001424:	d10f      	bne.n	8001446 <ABCM_uddtDetermineCarState+0xf6>
			{
				/* check if the ACC is off */
				if(gl_u8AccIsOnFlag == 0)
 8001426:	4b94      	ldr	r3, [pc, #592]	; (8001678 <ABCM_uddtDetermineCarState+0x328>)
 8001428:	781b      	ldrb	r3, [r3, #0]
 800142a:	2b00      	cmp	r3, #0
 800142c:	d105      	bne.n	800143a <ABCM_uddtDetermineCarState+0xea>
				{
					/* set the gl_u8NccIsOnFlag (global flag) to indicate all of the system that the NCC is on */
					gl_u8NccIsOnFlag = 1;
 800142e:	4b91      	ldr	r3, [pc, #580]	; (8001674 <ABCM_uddtDetermineCarState+0x324>)
 8001430:	2201      	movs	r2, #1
 8001432:	701a      	strb	r2, [r3, #0]
					/* return to ABCM_CAR_NCC_ACTIVE state */
					ret = ABCM_CAR_NCC_ACTIVE;
 8001434:	2302      	movs	r3, #2
 8001436:	73fb      	strb	r3, [r7, #15]
			/* return to ABCM_CAR_GET_FAULT state */
			ret = ABCM_CAR_GET_FAULT;
		}
		else {/* DO Nothing */};
		/* break the switch */
		break;
 8001438:	e12e      	b.n	8001698 <ABCM_uddtDetermineCarState+0x348>
					gl_uddtFaultCode = ABCM_FAULT_ACC_IS_ALREADY_ACTIVE;
 800143a:	4b8d      	ldr	r3, [pc, #564]	; (8001670 <ABCM_uddtDetermineCarState+0x320>)
 800143c:	2203      	movs	r2, #3
 800143e:	701a      	strb	r2, [r3, #0]
					ret = ABCM_CAR_GET_FAULT;
 8001440:	2305      	movs	r3, #5
 8001442:	73fb      	strb	r3, [r7, #15]
		break;
 8001444:	e128      	b.n	8001698 <ABCM_uddtDetermineCarState+0x348>
				gl_uddtFaultCode = ABCM_FAULT_CAR_IS_ALREADY_OFF;
 8001446:	4b8a      	ldr	r3, [pc, #552]	; (8001670 <ABCM_uddtDetermineCarState+0x320>)
 8001448:	2204      	movs	r2, #4
 800144a:	701a      	strb	r2, [r3, #0]
				ret = ABCM_CAR_GET_FAULT;
 800144c:	2305      	movs	r3, #5
 800144e:	73fb      	strb	r3, [r7, #15]
				break;
 8001450:	e12d      	b.n	80016ae <ABCM_uddtDetermineCarState+0x35e>
		else if(gl_u8NccIsOnFlag == 1)
 8001452:	4b88      	ldr	r3, [pc, #544]	; (8001674 <ABCM_uddtDetermineCarState+0x324>)
 8001454:	781b      	ldrb	r3, [r3, #0]
 8001456:	2b01      	cmp	r3, #1
 8001458:	f040 811e 	bne.w	8001698 <ABCM_uddtDetermineCarState+0x348>
			gl_uddtFaultCode = ABCM_FAULT_NCC_IS_ALREADY_ACTIVE;
 800145c:	4b84      	ldr	r3, [pc, #528]	; (8001670 <ABCM_uddtDetermineCarState+0x320>)
 800145e:	2202      	movs	r2, #2
 8001460:	701a      	strb	r2, [r3, #0]
			ret = ABCM_CAR_GET_FAULT;
 8001462:	2305      	movs	r3, #5
 8001464:	73fb      	strb	r3, [r7, #15]
		break;
 8001466:	e117      	b.n	8001698 <ABCM_uddtDetermineCarState+0x348>
	}
	case 'a' : /* choice a : mean to turn on ACC */
	{
		/* check if the ACC is off  */
		if(gl_u8AccIsOnFlag == 0)
 8001468:	4b83      	ldr	r3, [pc, #524]	; (8001678 <ABCM_uddtDetermineCarState+0x328>)
 800146a:	781b      	ldrb	r3, [r3, #0]
 800146c:	2b00      	cmp	r3, #0
 800146e:	d119      	bne.n	80014a4 <ABCM_uddtDetermineCarState+0x154>
		{
			/* check if the car is on */
			if(gl_u8CarIsOnFlag == 1)
 8001470:	4b7e      	ldr	r3, [pc, #504]	; (800166c <ABCM_uddtDetermineCarState+0x31c>)
 8001472:	781b      	ldrb	r3, [r3, #0]
 8001474:	2b01      	cmp	r3, #1
 8001476:	d10f      	bne.n	8001498 <ABCM_uddtDetermineCarState+0x148>
			{
				/* check if the NCC is off */
				if(gl_u8NccIsOnFlag == 0)
 8001478:	4b7e      	ldr	r3, [pc, #504]	; (8001674 <ABCM_uddtDetermineCarState+0x324>)
 800147a:	781b      	ldrb	r3, [r3, #0]
 800147c:	2b00      	cmp	r3, #0
 800147e:	d105      	bne.n	800148c <ABCM_uddtDetermineCarState+0x13c>
				{
					/* set the gl_u8AccIsOnFlag (global flag) to indicate all of the system that the ACC is on */
					gl_u8AccIsOnFlag = 1;
 8001480:	4b7d      	ldr	r3, [pc, #500]	; (8001678 <ABCM_uddtDetermineCarState+0x328>)
 8001482:	2201      	movs	r2, #1
 8001484:	701a      	strb	r2, [r3, #0]
					/* return to ABCM_CAR_ACC_SET state */
					ret = ABCM_CAR_ACC_SET;
 8001486:	2303      	movs	r3, #3
 8001488:	73fb      	strb	r3, [r7, #15]
			/* return to ABCM_CAR_GET_FAULT state */
			ret = ABCM_CAR_GET_FAULT;
		}
		else {/* DO Nothing */};
		/* break the switch */
		break;
 800148a:	e107      	b.n	800169c <ABCM_uddtDetermineCarState+0x34c>
					gl_uddtFaultCode = ABCM_FAULT_NCC_IS_ALREADY_ACTIVE;
 800148c:	4b78      	ldr	r3, [pc, #480]	; (8001670 <ABCM_uddtDetermineCarState+0x320>)
 800148e:	2202      	movs	r2, #2
 8001490:	701a      	strb	r2, [r3, #0]
					ret = ABCM_CAR_GET_FAULT;
 8001492:	2305      	movs	r3, #5
 8001494:	73fb      	strb	r3, [r7, #15]
		break;
 8001496:	e101      	b.n	800169c <ABCM_uddtDetermineCarState+0x34c>
				gl_uddtFaultCode = ABCM_FAULT_CAR_IS_ALREADY_OFF;
 8001498:	4b75      	ldr	r3, [pc, #468]	; (8001670 <ABCM_uddtDetermineCarState+0x320>)
 800149a:	2204      	movs	r2, #4
 800149c:	701a      	strb	r2, [r3, #0]
				ret = ABCM_CAR_GET_FAULT;
 800149e:	2305      	movs	r3, #5
 80014a0:	73fb      	strb	r3, [r7, #15]
				break;
 80014a2:	e104      	b.n	80016ae <ABCM_uddtDetermineCarState+0x35e>
		else if(gl_u8AccIsOnFlag == 1)
 80014a4:	4b74      	ldr	r3, [pc, #464]	; (8001678 <ABCM_uddtDetermineCarState+0x328>)
 80014a6:	781b      	ldrb	r3, [r3, #0]
 80014a8:	2b01      	cmp	r3, #1
 80014aa:	f040 80f7 	bne.w	800169c <ABCM_uddtDetermineCarState+0x34c>
			gl_uddtFaultCode = ABCM_FAULT_ACC_IS_ALREADY_ACTIVE;
 80014ae:	4b70      	ldr	r3, [pc, #448]	; (8001670 <ABCM_uddtDetermineCarState+0x320>)
 80014b0:	2203      	movs	r2, #3
 80014b2:	701a      	strb	r2, [r3, #0]
			ret = ABCM_CAR_GET_FAULT;
 80014b4:	2305      	movs	r3, #5
 80014b6:	73fb      	strb	r3, [r7, #15]
		break;
 80014b8:	e0f0      	b.n	800169c <ABCM_uddtDetermineCarState+0x34c>
	}
	case 's' : /* choice s : mean to turn off car */
	{
		/* check if the car is on */
		if(gl_u8CarIsOnFlag == 1)
 80014ba:	4b6c      	ldr	r3, [pc, #432]	; (800166c <ABCM_uddtDetermineCarState+0x31c>)
 80014bc:	781b      	ldrb	r3, [r3, #0]
 80014be:	2b01      	cmp	r3, #1
 80014c0:	d119      	bne.n	80014f6 <ABCM_uddtDetermineCarState+0x1a6>
		{
			/* check if the NCC is off */
			if(gl_u8NccIsOnFlag == 0)
 80014c2:	4b6c      	ldr	r3, [pc, #432]	; (8001674 <ABCM_uddtDetermineCarState+0x324>)
 80014c4:	781b      	ldrb	r3, [r3, #0]
 80014c6:	2b00      	cmp	r3, #0
 80014c8:	d10f      	bne.n	80014ea <ABCM_uddtDetermineCarState+0x19a>
			{
				/* check if the ACC is off */
				if(gl_u8AccIsOnFlag == 0)
 80014ca:	4b6b      	ldr	r3, [pc, #428]	; (8001678 <ABCM_uddtDetermineCarState+0x328>)
 80014cc:	781b      	ldrb	r3, [r3, #0]
 80014ce:	2b00      	cmp	r3, #0
 80014d0:	d105      	bne.n	80014de <ABCM_uddtDetermineCarState+0x18e>
				{
					/* clear the gl_u8CarIsOnFlag (global flag) to indicate all of the system that the car is off */
					gl_u8CarIsOnFlag = 0;
 80014d2:	4b66      	ldr	r3, [pc, #408]	; (800166c <ABCM_uddtDetermineCarState+0x31c>)
 80014d4:	2200      	movs	r2, #0
 80014d6:	701a      	strb	r2, [r3, #0]
					/* return to ABCM_CAR_STANDBY state */
					ret = ABCM_CAR_STANDBY;
 80014d8:	2300      	movs	r3, #0
 80014da:	73fb      	strb	r3, [r7, #15]
			/* return to ABCM_CAR_GET_FAULT state */
			ret = ABCM_CAR_GET_FAULT;
		}
		else {/* DO Nothing */};
		/* break the switch */
		break;
 80014dc:	e0e0      	b.n	80016a0 <ABCM_uddtDetermineCarState+0x350>
					gl_uddtFaultCode = ABCM_FAULT_ACC_IS_ALREADY_ACTIVE;
 80014de:	4b64      	ldr	r3, [pc, #400]	; (8001670 <ABCM_uddtDetermineCarState+0x320>)
 80014e0:	2203      	movs	r2, #3
 80014e2:	701a      	strb	r2, [r3, #0]
					ret = ABCM_CAR_GET_FAULT;
 80014e4:	2305      	movs	r3, #5
 80014e6:	73fb      	strb	r3, [r7, #15]
		break;
 80014e8:	e0da      	b.n	80016a0 <ABCM_uddtDetermineCarState+0x350>
				gl_uddtFaultCode = ABCM_FAULT_NCC_IS_ALREADY_ACTIVE;
 80014ea:	4b61      	ldr	r3, [pc, #388]	; (8001670 <ABCM_uddtDetermineCarState+0x320>)
 80014ec:	2202      	movs	r2, #2
 80014ee:	701a      	strb	r2, [r3, #0]
				ret = ABCM_CAR_GET_FAULT;
 80014f0:	2305      	movs	r3, #5
 80014f2:	73fb      	strb	r3, [r7, #15]
		break;
 80014f4:	e0d4      	b.n	80016a0 <ABCM_uddtDetermineCarState+0x350>
		else if(gl_u8CarIsOnFlag == 0)
 80014f6:	4b5d      	ldr	r3, [pc, #372]	; (800166c <ABCM_uddtDetermineCarState+0x31c>)
 80014f8:	781b      	ldrb	r3, [r3, #0]
 80014fa:	2b00      	cmp	r3, #0
 80014fc:	f040 80d0 	bne.w	80016a0 <ABCM_uddtDetermineCarState+0x350>
			gl_uddtFaultCode = ABCM_FAULT_CAR_IS_ALREADY_OFF;
 8001500:	4b5b      	ldr	r3, [pc, #364]	; (8001670 <ABCM_uddtDetermineCarState+0x320>)
 8001502:	2204      	movs	r2, #4
 8001504:	701a      	strb	r2, [r3, #0]
			ret = ABCM_CAR_GET_FAULT;
 8001506:	2305      	movs	r3, #5
 8001508:	73fb      	strb	r3, [r7, #15]
		break;
 800150a:	e0c9      	b.n	80016a0 <ABCM_uddtDetermineCarState+0x350>
	}
	case 'k' : /* choice k : mean to turn off NCC */
	{
		/* check if the car is on */
		if((gl_u8CarIsOnFlag == 1))
 800150c:	4b57      	ldr	r3, [pc, #348]	; (800166c <ABCM_uddtDetermineCarState+0x31c>)
 800150e:	781b      	ldrb	r3, [r3, #0]
 8001510:	2b01      	cmp	r3, #1
 8001512:	d114      	bne.n	800153e <ABCM_uddtDetermineCarState+0x1ee>
		{
			/* check if the NCC is on */
			if(gl_u8NccIsOnFlag == 1)
 8001514:	4b57      	ldr	r3, [pc, #348]	; (8001674 <ABCM_uddtDetermineCarState+0x324>)
 8001516:	781b      	ldrb	r3, [r3, #0]
 8001518:	2b01      	cmp	r3, #1
 800151a:	d105      	bne.n	8001528 <ABCM_uddtDetermineCarState+0x1d8>
			{
				/* clear the gl_u8NccIsOnFlag (global flag) to indicate all of the system that the NCC is off */
				gl_u8NccIsOnFlag = 0;
 800151c:	4b55      	ldr	r3, [pc, #340]	; (8001674 <ABCM_uddtDetermineCarState+0x324>)
 800151e:	2200      	movs	r2, #0
 8001520:	701a      	strb	r2, [r3, #0]
				/* return to ABCM_CAR_NCC_OFF state */
				ret = ABCM_CAR_NCC_OFF;
 8001522:	2306      	movs	r3, #6
 8001524:	73fb      	strb	r3, [r7, #15]
			/* return to ABCM_CAR_GET_FAULT state */
			ret = ABCM_CAR_GET_FAULT;
		}
		else {/* DO Nothing */};
		/* break the switch */
		break;
 8001526:	e0bd      	b.n	80016a4 <ABCM_uddtDetermineCarState+0x354>
			else if(gl_u8NccIsOnFlag == 0)
 8001528:	4b52      	ldr	r3, [pc, #328]	; (8001674 <ABCM_uddtDetermineCarState+0x324>)
 800152a:	781b      	ldrb	r3, [r3, #0]
 800152c:	2b00      	cmp	r3, #0
 800152e:	f040 80b9 	bne.w	80016a4 <ABCM_uddtDetermineCarState+0x354>
				gl_uddtFaultCode = ABCM_FAULT_NCC_IS_ALREADY_OFF;
 8001532:	4b4f      	ldr	r3, [pc, #316]	; (8001670 <ABCM_uddtDetermineCarState+0x320>)
 8001534:	2206      	movs	r2, #6
 8001536:	701a      	strb	r2, [r3, #0]
				ret = ABCM_CAR_GET_FAULT;
 8001538:	2305      	movs	r3, #5
 800153a:	73fb      	strb	r3, [r7, #15]
		break;
 800153c:	e0b2      	b.n	80016a4 <ABCM_uddtDetermineCarState+0x354>
		else if(gl_u8CarIsOnFlag == 0)
 800153e:	4b4b      	ldr	r3, [pc, #300]	; (800166c <ABCM_uddtDetermineCarState+0x31c>)
 8001540:	781b      	ldrb	r3, [r3, #0]
 8001542:	2b00      	cmp	r3, #0
 8001544:	f040 80ae 	bne.w	80016a4 <ABCM_uddtDetermineCarState+0x354>
			gl_uddtFaultCode = ABCM_FAULT_CAR_IS_ALREADY_OFF;
 8001548:	4b49      	ldr	r3, [pc, #292]	; (8001670 <ABCM_uddtDetermineCarState+0x320>)
 800154a:	2204      	movs	r2, #4
 800154c:	701a      	strb	r2, [r3, #0]
			ret = ABCM_CAR_GET_FAULT;
 800154e:	2305      	movs	r3, #5
 8001550:	73fb      	strb	r3, [r7, #15]
		break;
 8001552:	e0a7      	b.n	80016a4 <ABCM_uddtDetermineCarState+0x354>
	}
	case 'z' : /* choice z : mean to turn off ACC */
	{
		/* check if the car is on */
		if((gl_u8CarIsOnFlag == 1))
 8001554:	4b45      	ldr	r3, [pc, #276]	; (800166c <ABCM_uddtDetermineCarState+0x31c>)
 8001556:	781b      	ldrb	r3, [r3, #0]
 8001558:	2b01      	cmp	r3, #1
 800155a:	d114      	bne.n	8001586 <ABCM_uddtDetermineCarState+0x236>
		{
			/* check if the ACC is on */
			if(gl_u8AccIsOnFlag == 1)
 800155c:	4b46      	ldr	r3, [pc, #280]	; (8001678 <ABCM_uddtDetermineCarState+0x328>)
 800155e:	781b      	ldrb	r3, [r3, #0]
 8001560:	2b01      	cmp	r3, #1
 8001562:	d105      	bne.n	8001570 <ABCM_uddtDetermineCarState+0x220>
			{
				/* clear the gl_u8AccIsOnFlag (global flag) to indicate all of the system that the ACC is off */
				gl_u8AccIsOnFlag = 0;
 8001564:	4b44      	ldr	r3, [pc, #272]	; (8001678 <ABCM_uddtDetermineCarState+0x328>)
 8001566:	2200      	movs	r2, #0
 8001568:	701a      	strb	r2, [r3, #0]
				/* return to ABCM_CAR_ACC_OFF state */
				ret = ABCM_CAR_ACC_OFF;
 800156a:	2307      	movs	r3, #7
 800156c:	73fb      	strb	r3, [r7, #15]
			/* return to ABCM_CAR_GET_FAULT state */
			ret = ABCM_CAR_GET_FAULT;
		}
		else {/* DO Nothing */};
		/* break the switch */
		break;
 800156e:	e09b      	b.n	80016a8 <ABCM_uddtDetermineCarState+0x358>
			else if(gl_u8AccIsOnFlag == 0)
 8001570:	4b41      	ldr	r3, [pc, #260]	; (8001678 <ABCM_uddtDetermineCarState+0x328>)
 8001572:	781b      	ldrb	r3, [r3, #0]
 8001574:	2b00      	cmp	r3, #0
 8001576:	f040 8097 	bne.w	80016a8 <ABCM_uddtDetermineCarState+0x358>
				gl_uddtFaultCode = ABCM_FAULT_ACC_IS_ALREADY_OFF;
 800157a:	4b3d      	ldr	r3, [pc, #244]	; (8001670 <ABCM_uddtDetermineCarState+0x320>)
 800157c:	2205      	movs	r2, #5
 800157e:	701a      	strb	r2, [r3, #0]
				ret = ABCM_CAR_GET_FAULT;
 8001580:	2305      	movs	r3, #5
 8001582:	73fb      	strb	r3, [r7, #15]
		break;
 8001584:	e090      	b.n	80016a8 <ABCM_uddtDetermineCarState+0x358>
		else if(gl_u8CarIsOnFlag == 0)
 8001586:	4b39      	ldr	r3, [pc, #228]	; (800166c <ABCM_uddtDetermineCarState+0x31c>)
 8001588:	781b      	ldrb	r3, [r3, #0]
 800158a:	2b00      	cmp	r3, #0
 800158c:	f040 808c 	bne.w	80016a8 <ABCM_uddtDetermineCarState+0x358>
			gl_uddtFaultCode = ABCM_FAULT_CAR_IS_ALREADY_OFF;
 8001590:	4b37      	ldr	r3, [pc, #220]	; (8001670 <ABCM_uddtDetermineCarState+0x320>)
 8001592:	2204      	movs	r2, #4
 8001594:	701a      	strb	r2, [r3, #0]
			ret = ABCM_CAR_GET_FAULT;
 8001596:	2305      	movs	r3, #5
 8001598:	73fb      	strb	r3, [r7, #15]
		break;
 800159a:	e085      	b.n	80016a8 <ABCM_uddtDetermineCarState+0x358>
	}
	case 'j': /* choice j : mean driver want to update the firmware */
	{
		/* check if the car is off */
		if(gl_u8CarIsOnFlag == 0)
 800159c:	4b33      	ldr	r3, [pc, #204]	; (800166c <ABCM_uddtDetermineCarState+0x31c>)
 800159e:	781b      	ldrb	r3, [r3, #0]
 80015a0:	2b00      	cmp	r3, #0
 80015a2:	d120      	bne.n	80015e6 <ABCM_uddtDetermineCarState+0x296>
		{
			/* check if the ACC is off */
			if(gl_u8AccIsOnFlag == 0)
 80015a4:	4b34      	ldr	r3, [pc, #208]	; (8001678 <ABCM_uddtDetermineCarState+0x328>)
 80015a6:	781b      	ldrb	r3, [r3, #0]
 80015a8:	2b00      	cmp	r3, #0
 80015aa:	d116      	bne.n	80015da <ABCM_uddtDetermineCarState+0x28a>
			{
				/* check if the NCC is off */
				if(gl_u8NccIsOnFlag == 0)
 80015ac:	4b31      	ldr	r3, [pc, #196]	; (8001674 <ABCM_uddtDetermineCarState+0x324>)
 80015ae:	781b      	ldrb	r3, [r3, #0]
 80015b0:	2b00      	cmp	r3, #0
 80015b2:	d10c      	bne.n	80015ce <ABCM_uddtDetermineCarState+0x27e>
				{
					/*check if their is new firmware*/
					if(gl_u8NewFirmwareFlag == 1)
 80015b4:	4b31      	ldr	r3, [pc, #196]	; (800167c <ABCM_uddtDetermineCarState+0x32c>)
 80015b6:	781b      	ldrb	r3, [r3, #0]
 80015b8:	2b01      	cmp	r3, #1
 80015ba:	d102      	bne.n	80015c2 <ABCM_uddtDetermineCarState+0x272>
					{
						/* return to ABCM_UPDATE_FIRMWARE state */
						ret = ABCM_UPDATE_FIRMWARE;
 80015bc:	2309      	movs	r3, #9
 80015be:	73fb      	strb	r3, [r7, #15]
			gl_uddtFaultCode = ABCM_FAULT_CAR_IS_ALREADY_ON;
			/* return to ABCM_CAR_GET_FAULT state */
			ret = ABCM_CAR_GET_FAULT;
		}
		/* break the switch */
		break;
 80015c0:	e075      	b.n	80016ae <ABCM_uddtDetermineCarState+0x35e>
						gl_uddtFaultCode = ABCM_NO_FIRMWARE;
 80015c2:	4b2b      	ldr	r3, [pc, #172]	; (8001670 <ABCM_uddtDetermineCarState+0x320>)
 80015c4:	2209      	movs	r2, #9
 80015c6:	701a      	strb	r2, [r3, #0]
						ret = ABCM_CAR_GET_FAULT;
 80015c8:	2305      	movs	r3, #5
 80015ca:	73fb      	strb	r3, [r7, #15]
		break;
 80015cc:	e06f      	b.n	80016ae <ABCM_uddtDetermineCarState+0x35e>
					gl_uddtFaultCode = ABCM_FAULT_NCC_IS_ALREADY_ACTIVE;
 80015ce:	4b28      	ldr	r3, [pc, #160]	; (8001670 <ABCM_uddtDetermineCarState+0x320>)
 80015d0:	2202      	movs	r2, #2
 80015d2:	701a      	strb	r2, [r3, #0]
					ret = ABCM_CAR_GET_FAULT;
 80015d4:	2305      	movs	r3, #5
 80015d6:	73fb      	strb	r3, [r7, #15]
		break;
 80015d8:	e069      	b.n	80016ae <ABCM_uddtDetermineCarState+0x35e>
				gl_uddtFaultCode = ABCM_FAULT_ACC_IS_ALREADY_ACTIVE;
 80015da:	4b25      	ldr	r3, [pc, #148]	; (8001670 <ABCM_uddtDetermineCarState+0x320>)
 80015dc:	2203      	movs	r2, #3
 80015de:	701a      	strb	r2, [r3, #0]
				ret = ABCM_CAR_GET_FAULT;
 80015e0:	2305      	movs	r3, #5
 80015e2:	73fb      	strb	r3, [r7, #15]
		break;
 80015e4:	e063      	b.n	80016ae <ABCM_uddtDetermineCarState+0x35e>
			gl_uddtFaultCode = ABCM_FAULT_CAR_IS_ALREADY_ON;
 80015e6:	4b22      	ldr	r3, [pc, #136]	; (8001670 <ABCM_uddtDetermineCarState+0x320>)
 80015e8:	2201      	movs	r2, #1
 80015ea:	701a      	strb	r2, [r3, #0]
			ret = ABCM_CAR_GET_FAULT;
 80015ec:	2305      	movs	r3, #5
 80015ee:	73fb      	strb	r3, [r7, #15]
		break;
 80015f0:	e05d      	b.n	80016ae <ABCM_uddtDetermineCarState+0x35e>
	}
	case '+' : /* choice + : mean to increment speed */
	case '-' : /* choice + : mean to decrement speed */
	{
		/* check if the car is on */
		if(gl_u8CarIsOnFlag == 1)
 80015f2:	4b1e      	ldr	r3, [pc, #120]	; (800166c <ABCM_uddtDetermineCarState+0x31c>)
 80015f4:	781b      	ldrb	r3, [r3, #0]
 80015f6:	2b01      	cmp	r3, #1
 80015f8:	d12d      	bne.n	8001656 <ABCM_uddtDetermineCarState+0x306>
		{
			/* check if the NCC is off */
			if(gl_u8NccIsOnFlag == 0)
 80015fa:	4b1e      	ldr	r3, [pc, #120]	; (8001674 <ABCM_uddtDetermineCarState+0x324>)
 80015fc:	781b      	ldrb	r3, [r3, #0]
 80015fe:	2b00      	cmp	r3, #0
 8001600:	d119      	bne.n	8001636 <ABCM_uddtDetermineCarState+0x2e6>
			{
				/* check if the ACC is off */
				if(gl_u8AccIsOnFlag == 0)
 8001602:	4b1d      	ldr	r3, [pc, #116]	; (8001678 <ABCM_uddtDetermineCarState+0x328>)
 8001604:	781b      	ldrb	r3, [r3, #0]
 8001606:	2b00      	cmp	r3, #0
 8001608:	d105      	bne.n	8001616 <ABCM_uddtDetermineCarState+0x2c6>
				{
					/* ACC is off and NCC is off so assign fault code in gl_uddtFaultCode (global variable) to notify driver */
					gl_uddtFaultCode = ABCM_FAULT_ACC_NOR_NCC_IS_WORKING;
 800160a:	4b19      	ldr	r3, [pc, #100]	; (8001670 <ABCM_uddtDetermineCarState+0x320>)
 800160c:	2208      	movs	r2, #8
 800160e:	701a      	strb	r2, [r3, #0]
					/* return to ABCM_CAR_GET_FAULT state */
					ret = ABCM_CAR_GET_FAULT;
 8001610:	2305      	movs	r3, #5
 8001612:	73fb      	strb	r3, [r7, #15]
			/* return to ABCM_CAR_GET_FAULT state */
			ret = ABCM_CAR_GET_FAULT;
		}
		else {/* DO Nothing */};
		/* break the switch */
		break;
 8001614:	e04a      	b.n	80016ac <ABCM_uddtDetermineCarState+0x35c>
					if(copy_u8Action == '+')
 8001616:	79fb      	ldrb	r3, [r7, #7]
 8001618:	2b2b      	cmp	r3, #43	; 0x2b
 800161a:	d103      	bne.n	8001624 <ABCM_uddtDetermineCarState+0x2d4>
						gl_u8IncSpeedFlag = 1;
 800161c:	4b18      	ldr	r3, [pc, #96]	; (8001680 <ABCM_uddtDetermineCarState+0x330>)
 800161e:	2201      	movs	r2, #1
 8001620:	701a      	strb	r2, [r3, #0]
 8001622:	e005      	b.n	8001630 <ABCM_uddtDetermineCarState+0x2e0>
					else if(copy_u8Action == '-')
 8001624:	79fb      	ldrb	r3, [r7, #7]
 8001626:	2b2d      	cmp	r3, #45	; 0x2d
 8001628:	d102      	bne.n	8001630 <ABCM_uddtDetermineCarState+0x2e0>
						gl_u8DecSpeedFlag = 1;
 800162a:	4b16      	ldr	r3, [pc, #88]	; (8001684 <ABCM_uddtDetermineCarState+0x334>)
 800162c:	2201      	movs	r2, #1
 800162e:	701a      	strb	r2, [r3, #0]
					ret = ABCM_CHANGE_SPEED_LIMIT;
 8001630:	230a      	movs	r3, #10
 8001632:	73fb      	strb	r3, [r7, #15]
		break;
 8001634:	e03a      	b.n	80016ac <ABCM_uddtDetermineCarState+0x35c>
				if(copy_u8Action == '+')
 8001636:	79fb      	ldrb	r3, [r7, #7]
 8001638:	2b2b      	cmp	r3, #43	; 0x2b
 800163a:	d103      	bne.n	8001644 <ABCM_uddtDetermineCarState+0x2f4>
					gl_u8IncSpeedFlag = 1;
 800163c:	4b10      	ldr	r3, [pc, #64]	; (8001680 <ABCM_uddtDetermineCarState+0x330>)
 800163e:	2201      	movs	r2, #1
 8001640:	701a      	strb	r2, [r3, #0]
 8001642:	e005      	b.n	8001650 <ABCM_uddtDetermineCarState+0x300>
				else if(copy_u8Action == '-')
 8001644:	79fb      	ldrb	r3, [r7, #7]
 8001646:	2b2d      	cmp	r3, #45	; 0x2d
 8001648:	d102      	bne.n	8001650 <ABCM_uddtDetermineCarState+0x300>
					gl_u8DecSpeedFlag = 1;
 800164a:	4b0e      	ldr	r3, [pc, #56]	; (8001684 <ABCM_uddtDetermineCarState+0x334>)
 800164c:	2201      	movs	r2, #1
 800164e:	701a      	strb	r2, [r3, #0]
				ret = ABCM_CHANGE_SPEED_LIMIT;
 8001650:	230a      	movs	r3, #10
 8001652:	73fb      	strb	r3, [r7, #15]
		break;
 8001654:	e02a      	b.n	80016ac <ABCM_uddtDetermineCarState+0x35c>
		else if(gl_u8CarIsOnFlag == 0)
 8001656:	4b05      	ldr	r3, [pc, #20]	; (800166c <ABCM_uddtDetermineCarState+0x31c>)
 8001658:	781b      	ldrb	r3, [r3, #0]
 800165a:	2b00      	cmp	r3, #0
 800165c:	d126      	bne.n	80016ac <ABCM_uddtDetermineCarState+0x35c>
			gl_uddtFaultCode = ABCM_FAULT_CAR_IS_ALREADY_OFF;
 800165e:	4b04      	ldr	r3, [pc, #16]	; (8001670 <ABCM_uddtDetermineCarState+0x320>)
 8001660:	2204      	movs	r2, #4
 8001662:	701a      	strb	r2, [r3, #0]
			ret = ABCM_CAR_GET_FAULT;
 8001664:	2305      	movs	r3, #5
 8001666:	73fb      	strb	r3, [r7, #15]
		break;
 8001668:	e020      	b.n	80016ac <ABCM_uddtDetermineCarState+0x35c>
 800166a:	bf00      	nop
 800166c:	2000009e 	.word	0x2000009e
 8001670:	20000094 	.word	0x20000094
 8001674:	2000009f 	.word	0x2000009f
 8001678:	200000a0 	.word	0x200000a0
 800167c:	200000a1 	.word	0x200000a1
 8001680:	2000009c 	.word	0x2000009c
 8001684:	2000009d 	.word	0x2000009d
	}
	default : /* default : mean that the input is unknown */
	{
		/* send the action to function that determine the fault & what to do */
		ret = ABCM_uddtFaultDetection('#');
 8001688:	2023      	movs	r0, #35	; 0x23
 800168a:	f000 f815 	bl	80016b8 <ABCM_uddtFaultDetection>
 800168e:	4603      	mov	r3, r0
 8001690:	73fb      	strb	r3, [r7, #15]
 8001692:	e00c      	b.n	80016ae <ABCM_uddtDetermineCarState+0x35e>
		break;
 8001694:	bf00      	nop
 8001696:	e00a      	b.n	80016ae <ABCM_uddtDetermineCarState+0x35e>
		break;
 8001698:	bf00      	nop
 800169a:	e008      	b.n	80016ae <ABCM_uddtDetermineCarState+0x35e>
		break;
 800169c:	bf00      	nop
 800169e:	e006      	b.n	80016ae <ABCM_uddtDetermineCarState+0x35e>
		break;
 80016a0:	bf00      	nop
 80016a2:	e004      	b.n	80016ae <ABCM_uddtDetermineCarState+0x35e>
		break;
 80016a4:	bf00      	nop
 80016a6:	e002      	b.n	80016ae <ABCM_uddtDetermineCarState+0x35e>
		break;
 80016a8:	bf00      	nop
 80016aa:	e000      	b.n	80016ae <ABCM_uddtDetermineCarState+0x35e>
		break;
 80016ac:	bf00      	nop
	}
	}
	/*return the state of the car to perform the determined logic*/
	return ret;
 80016ae:	7bfb      	ldrb	r3, [r7, #15]
}
 80016b0:	4618      	mov	r0, r3
 80016b2:	3710      	adds	r7, #16
 80016b4:	46bd      	mov	sp, r7
 80016b6:	bd80      	pop	{r7, pc}

080016b8 <ABCM_uddtFaultDetection>:
 * @param copy_uddtFaultCode
 * @return EN_ABCM_carStates_t
 */

EN_ABCM_carStates_t ABCM_uddtFaultDetection(EN_ABCM_faultCodes_t copy_uddtFaultCode)
{
 80016b8:	b580      	push	{r7, lr}
 80016ba:	b084      	sub	sp, #16
 80016bc:	af00      	add	r7, sp, #0
 80016be:	4603      	mov	r3, r0
 80016c0:	71fb      	strb	r3, [r7, #7]
	/* local variable store return of the function */
	EN_ABCM_carStates_t ret;

	/*switch to know from the fault code what to do */
	switch(copy_uddtFaultCode)
 80016c2:	79fb      	ldrb	r3, [r7, #7]
 80016c4:	3b01      	subs	r3, #1
 80016c6:	2b08      	cmp	r3, #8
 80016c8:	d85e      	bhi.n	8001788 <ABCM_uddtFaultDetection+0xd0>
 80016ca:	a201      	add	r2, pc, #4	; (adr r2, 80016d0 <ABCM_uddtFaultDetection+0x18>)
 80016cc:	f852 f023 	ldr.w	pc, [r2, r3, lsl #2]
 80016d0:	080016f5 	.word	0x080016f5
 80016d4:	08001703 	.word	0x08001703
 80016d8:	08001711 	.word	0x08001711
 80016dc:	0800171f 	.word	0x0800171f
 80016e0:	0800173b 	.word	0x0800173b
 80016e4:	0800172d 	.word	0x0800172d
 80016e8:	08001749 	.word	0x08001749
 80016ec:	0800176d 	.word	0x0800176d
 80016f0:	0800177b 	.word	0x0800177b
	{
	case ABCM_FAULT_CAR_IS_ALREADY_ON : /* this code mean that the driver want to turn car on but it is already on */
	{
		/* transmit a massage for the driver with UART with fault code & short description about it*/
		HHC05_uddtTransmitString(MUART1_PERIPHERAL,(uint8_t *)"Fault 1 : Car Is Already On \r\n");
 80016f4:	4931      	ldr	r1, [pc, #196]	; (80017bc <ABCM_uddtFaultDetection+0x104>)
 80016f6:	4832      	ldr	r0, [pc, #200]	; (80017c0 <ABCM_uddtFaultDetection+0x108>)
 80016f8:	f000 fb62 	bl	8001dc0 <HHC05_uddtTransmitString>
		/* return to ABCM_CAR_RECVINIG state */
		ret = ABCM_CAR_IDLE;
 80016fc:	2308      	movs	r3, #8
 80016fe:	73fb      	strb	r3, [r7, #15]
		/* break the switch */
		break;
 8001700:	e057      	b.n	80017b2 <ABCM_uddtFaultDetection+0xfa>
	}
	case ABCM_FAULT_NCC_IS_ALREADY_ACTIVE : /* this code mean that the driver want to turn NCC on but it is already on */
	{
		/* transmit a massage for the driver with UART with fault code & short description about it*/
		HHC05_uddtTransmitString(MUART1_PERIPHERAL,(uint8_t *)"Fault 2 : NCC Is Already Active \r\n");
 8001702:	4930      	ldr	r1, [pc, #192]	; (80017c4 <ABCM_uddtFaultDetection+0x10c>)
 8001704:	482e      	ldr	r0, [pc, #184]	; (80017c0 <ABCM_uddtFaultDetection+0x108>)
 8001706:	f000 fb5b 	bl	8001dc0 <HHC05_uddtTransmitString>
		/* return to ABCM_CAR_RECVINIG state */
		ret = ABCM_CAR_IDLE;
 800170a:	2308      	movs	r3, #8
 800170c:	73fb      	strb	r3, [r7, #15]
		/* break the switch */
		break;
 800170e:	e050      	b.n	80017b2 <ABCM_uddtFaultDetection+0xfa>
	}
	case ABCM_FAULT_ACC_IS_ALREADY_ACTIVE : /* this code mean that the driver want to turn ACC on but it is already on */
	{
		/* transmit a massage for the driver with UART with fault code & short description about it*/
		HHC05_uddtTransmitString(MUART1_PERIPHERAL,(uint8_t *)"Fault 3 : ACC Is Already Active \r\n");
 8001710:	492d      	ldr	r1, [pc, #180]	; (80017c8 <ABCM_uddtFaultDetection+0x110>)
 8001712:	482b      	ldr	r0, [pc, #172]	; (80017c0 <ABCM_uddtFaultDetection+0x108>)
 8001714:	f000 fb54 	bl	8001dc0 <HHC05_uddtTransmitString>
		/* return to ABCM_CAR_RECVINIG state */
		ret = ABCM_CAR_ACC_ACTIVE;
 8001718:	2304      	movs	r3, #4
 800171a:	73fb      	strb	r3, [r7, #15]
		/* break the switch */
		break;
 800171c:	e049      	b.n	80017b2 <ABCM_uddtFaultDetection+0xfa>
	}
	case ABCM_FAULT_CAR_IS_ALREADY_OFF : /* this code mean that the driver want to turn car off but it is already off */
	{
		/* transmit a massage for the driver with UART with fault code & short description about it*/
		HHC05_uddtTransmitString(MUART1_PERIPHERAL,(uint8_t *)"Fault 4 : Car Is Already Off \r\n");
 800171e:	492b      	ldr	r1, [pc, #172]	; (80017cc <ABCM_uddtFaultDetection+0x114>)
 8001720:	4827      	ldr	r0, [pc, #156]	; (80017c0 <ABCM_uddtFaultDetection+0x108>)
 8001722:	f000 fb4d 	bl	8001dc0 <HHC05_uddtTransmitString>
		/* return to ABCM_CAR_STANDBY state */
		ret = ABCM_CAR_STANDBY;
 8001726:	2300      	movs	r3, #0
 8001728:	73fb      	strb	r3, [r7, #15]
		/* break the switch */
		break;
 800172a:	e042      	b.n	80017b2 <ABCM_uddtFaultDetection+0xfa>
	}
	case ABCM_FAULT_NCC_IS_ALREADY_OFF : /* this code mean that the driver want to turn NCC off but it is already off */
	{
		/* transmit a massage for the driver with UART with fault code & short description about it*/
		HHC05_uddtTransmitString(MUART1_PERIPHERAL,(uint8_t *)"Fault 5 : NCC Is Already Off \r\n");
 800172c:	4928      	ldr	r1, [pc, #160]	; (80017d0 <ABCM_uddtFaultDetection+0x118>)
 800172e:	4824      	ldr	r0, [pc, #144]	; (80017c0 <ABCM_uddtFaultDetection+0x108>)
 8001730:	f000 fb46 	bl	8001dc0 <HHC05_uddtTransmitString>
		/* return to ABCM_CAR_RECVINIG state */
		ret = ABCM_CAR_IDLE;
 8001734:	2308      	movs	r3, #8
 8001736:	73fb      	strb	r3, [r7, #15]
		/* break the switch */
		break;
 8001738:	e03b      	b.n	80017b2 <ABCM_uddtFaultDetection+0xfa>
	}
	case ABCM_FAULT_ACC_IS_ALREADY_OFF : /* this code mean that the driver want to turn ACC off but it is already off */
	{
		/* transmit a massage for the driver with UART with fault code & short description about it*/
		HHC05_uddtTransmitString(MUART1_PERIPHERAL,(uint8_t *)"Fault 6 : ACC Is Already Off \r\n");
 800173a:	4926      	ldr	r1, [pc, #152]	; (80017d4 <ABCM_uddtFaultDetection+0x11c>)
 800173c:	4820      	ldr	r0, [pc, #128]	; (80017c0 <ABCM_uddtFaultDetection+0x108>)
 800173e:	f000 fb3f 	bl	8001dc0 <HHC05_uddtTransmitString>
		/* return to ABCM_CAR_RECVINIG state */
		ret = ABCM_CAR_IDLE;
 8001742:	2308      	movs	r3, #8
 8001744:	73fb      	strb	r3, [r7, #15]
		/* break the switch */
		break;
 8001746:	e034      	b.n	80017b2 <ABCM_uddtFaultDetection+0xfa>
	}
	case ABCM_FAULT_SPEED_RANGE_INVALID : /* this code mean that the driver input invalid speed range */
	{
		/* transmit a massage for the driver with UART with fault code & short description about it*/
		HHC05_uddtTransmitString(MUART1_PERIPHERAL,(uint8_t *)"Fault 7 : Setting Speed Out Of The Range Of (1 To 100) \r\n");
 8001748:	4923      	ldr	r1, [pc, #140]	; (80017d8 <ABCM_uddtFaultDetection+0x120>)
 800174a:	481d      	ldr	r0, [pc, #116]	; (80017c0 <ABCM_uddtFaultDetection+0x108>)
 800174c:	f000 fb38 	bl	8001dc0 <HHC05_uddtTransmitString>
		/*check driver set the speed for NCC or ACC to return to correct state*/
		/*check if the NCC is on*/
		if(gl_u8NccIsOnFlag == 1)
 8001750:	4b22      	ldr	r3, [pc, #136]	; (80017dc <ABCM_uddtFaultDetection+0x124>)
 8001752:	781b      	ldrb	r3, [r3, #0]
 8001754:	2b01      	cmp	r3, #1
 8001756:	d102      	bne.n	800175e <ABCM_uddtFaultDetection+0xa6>
		{
			/* return to ABCM_CAR_IDLE state */
			ret = ABCM_CAR_IDLE;
 8001758:	2308      	movs	r3, #8
 800175a:	73fb      	strb	r3, [r7, #15]
			/* return to ABCM_CAR_ACC_ACTIVE state */
			ret = ABCM_CAR_ACC_SET;
		}
		else{/*Do Nothing*/};
		/* break the switch */
		break;
 800175c:	e026      	b.n	80017ac <ABCM_uddtFaultDetection+0xf4>
		else if(gl_u8AccIsOnFlag == 1)
 800175e:	4b20      	ldr	r3, [pc, #128]	; (80017e0 <ABCM_uddtFaultDetection+0x128>)
 8001760:	781b      	ldrb	r3, [r3, #0]
 8001762:	2b01      	cmp	r3, #1
 8001764:	d122      	bne.n	80017ac <ABCM_uddtFaultDetection+0xf4>
			ret = ABCM_CAR_ACC_SET;
 8001766:	2303      	movs	r3, #3
 8001768:	73fb      	strb	r3, [r7, #15]
		break;
 800176a:	e01f      	b.n	80017ac <ABCM_uddtFaultDetection+0xf4>
	}
	case ABCM_FAULT_ACC_NOR_NCC_IS_WORKING : /* this code mean that driver want to change speed but ACC & NCC is not working */
	{
		/* transmit a massage for the driver with UART with fault code & short description about it*/
		HHC05_uddtTransmitString(MUART1_PERIPHERAL,(uint8_t *)"Fault 8 : Can't Change Speed ACC & NCC Is Not Working \r\n");
 800176c:	491d      	ldr	r1, [pc, #116]	; (80017e4 <ABCM_uddtFaultDetection+0x12c>)
 800176e:	4814      	ldr	r0, [pc, #80]	; (80017c0 <ABCM_uddtFaultDetection+0x108>)
 8001770:	f000 fb26 	bl	8001dc0 <HHC05_uddtTransmitString>
		/* return to ABCM_CAR_ABCM_CAR_STANDBY state */
		ret = ABCM_CAR_IDLE;
 8001774:	2308      	movs	r3, #8
 8001776:	73fb      	strb	r3, [r7, #15]
		/* break the switch */
		break;
 8001778:	e01b      	b.n	80017b2 <ABCM_uddtFaultDetection+0xfa>
	}
	case ABCM_NO_FIRMWARE : /* this code mean that the driver want to get new update but their is no new update */
	{
		/* transmit a massage for the driver with UART with fault code & short description about it*/
		HHC05_uddtTransmitString(MUART1_PERIPHERAL,(uint8_t *)"Fault 9 : No New Update For The Firmware On The Server \r\n");
 800177a:	491b      	ldr	r1, [pc, #108]	; (80017e8 <ABCM_uddtFaultDetection+0x130>)
 800177c:	4810      	ldr	r0, [pc, #64]	; (80017c0 <ABCM_uddtFaultDetection+0x108>)
 800177e:	f000 fb1f 	bl	8001dc0 <HHC05_uddtTransmitString>
		/* return to ABCM_CAR_ABCM_CAR_STANDBY state */
		ret = ABCM_CAR_STANDBY;
 8001782:	2300      	movs	r3, #0
 8001784:	73fb      	strb	r3, [r7, #15]
		/* break the switch */
		break;
 8001786:	e014      	b.n	80017b2 <ABCM_uddtFaultDetection+0xfa>
	}
	default: /* default : mean that the input is unknown */
	{
		/* transmit a massage for the driver with UART with fault code & short description about it*/
		HHC05_uddtTransmitString(MUART1_PERIPHERAL,(uint8_t *)"Fault  : Invalid Option \r\n");
 8001788:	4918      	ldr	r1, [pc, #96]	; (80017ec <ABCM_uddtFaultDetection+0x134>)
 800178a:	480d      	ldr	r0, [pc, #52]	; (80017c0 <ABCM_uddtFaultDetection+0x108>)
 800178c:	f000 fb18 	bl	8001dc0 <HHC05_uddtTransmitString>
		/*check if the car is on or off to return to correct state*/
		/*check if the car is on */
		if(gl_u8CarIsOnFlag == 1)
 8001790:	4b17      	ldr	r3, [pc, #92]	; (80017f0 <ABCM_uddtFaultDetection+0x138>)
 8001792:	781b      	ldrb	r3, [r3, #0]
 8001794:	2b01      	cmp	r3, #1
 8001796:	d102      	bne.n	800179e <ABCM_uddtFaultDetection+0xe6>
		{
			/* return to ABCM_CAR_RECVINIG state */
			ret = ABCM_CAR_IDLE;
 8001798:	2308      	movs	r3, #8
 800179a:	73fb      	strb	r3, [r7, #15]
		{
			/* return to ABCM_CAR_STANDBY state */
			ret = ABCM_CAR_STANDBY;
		}
		/* break the switch */
		break;
 800179c:	e008      	b.n	80017b0 <ABCM_uddtFaultDetection+0xf8>
		else if(gl_u8CarIsOnFlag == 0)
 800179e:	4b14      	ldr	r3, [pc, #80]	; (80017f0 <ABCM_uddtFaultDetection+0x138>)
 80017a0:	781b      	ldrb	r3, [r3, #0]
 80017a2:	2b00      	cmp	r3, #0
 80017a4:	d104      	bne.n	80017b0 <ABCM_uddtFaultDetection+0xf8>
			ret = ABCM_CAR_STANDBY;
 80017a6:	2300      	movs	r3, #0
 80017a8:	73fb      	strb	r3, [r7, #15]
		break;
 80017aa:	e001      	b.n	80017b0 <ABCM_uddtFaultDetection+0xf8>
		break;
 80017ac:	bf00      	nop
 80017ae:	e000      	b.n	80017b2 <ABCM_uddtFaultDetection+0xfa>
		break;
 80017b0:	bf00      	nop
	}
	}
	/*return the state of the car to perform the determined logic*/
	return ret;
 80017b2:	7bfb      	ldrb	r3, [r7, #15]
}
 80017b4:	4618      	mov	r0, r3
 80017b6:	3710      	adds	r7, #16
 80017b8:	46bd      	mov	sp, r7
 80017ba:	bd80      	pop	{r7, pc}
 80017bc:	0800331c 	.word	0x0800331c
 80017c0:	40011000 	.word	0x40011000
 80017c4:	0800333c 	.word	0x0800333c
 80017c8:	08003360 	.word	0x08003360
 80017cc:	08003384 	.word	0x08003384
 80017d0:	080033a4 	.word	0x080033a4
 80017d4:	080033c4 	.word	0x080033c4
 80017d8:	080033e4 	.word	0x080033e4
 80017dc:	2000009f 	.word	0x2000009f
 80017e0:	200000a0 	.word	0x200000a0
 80017e4:	08003420 	.word	0x08003420
 80017e8:	0800345c 	.word	0x0800345c
 80017ec:	08003498 	.word	0x08003498
 80017f0:	2000009e 	.word	0x2000009e

080017f4 <ABCM_vThreadMode>:
 *
 */


void ABCM_vThreadMode(void)
{
 80017f4:	b580      	push	{r7, lr}
 80017f6:	b082      	sub	sp, #8
 80017f8:	af00      	add	r7, sp, #0
	/* transmit a massage for the driver with UART with fault code & short description about it*/
	HHC05_uddtTransmitString(MUART1_PERIPHERAL,(uint8_t *)"Car in dangerous zone all systems are turned off \r\n");
 80017fa:	491b      	ldr	r1, [pc, #108]	; (8001868 <ABCM_vThreadMode+0x74>)
 80017fc:	481b      	ldr	r0, [pc, #108]	; (800186c <ABCM_vThreadMode+0x78>)
 80017fe:	f000 fadf 	bl	8001dc0 <HHC05_uddtTransmitString>
	/* clear the gl_u8AccIsOnFlag (global flag) to indicate all of the system that the ACC is off */
	gl_u8AccIsOnFlag = 0;
 8001802:	4b1b      	ldr	r3, [pc, #108]	; (8001870 <ABCM_vThreadMode+0x7c>)
 8001804:	2200      	movs	r2, #0
 8001806:	701a      	strb	r2, [r3, #0]
	/* clear the gl_u8NccIsOnFlag (global flag) to indicate all of the system that the NCC is off */
	gl_u8NccIsOnFlag = 0;
 8001808:	4b1a      	ldr	r3, [pc, #104]	; (8001874 <ABCM_vThreadMode+0x80>)
 800180a:	2200      	movs	r2, #0
 800180c:	701a      	strb	r2, [r3, #0]
	/*local variable to store the zone of AEB in it*/
	EN_AAEB_zones_t lo_uddtAebZone;
	/*Check if car zone */
	lo_uddtAebZone = AAEB_uddtCheckForObstacles(&gl_uddtRightDcm , &gl_uddtLeftDcm, gl_u32distance);
 800180e:	4b1a      	ldr	r3, [pc, #104]	; (8001878 <ABCM_vThreadMode+0x84>)
 8001810:	681b      	ldr	r3, [r3, #0]
 8001812:	461a      	mov	r2, r3
 8001814:	4919      	ldr	r1, [pc, #100]	; (800187c <ABCM_vThreadMode+0x88>)
 8001816:	481a      	ldr	r0, [pc, #104]	; (8001880 <ABCM_vThreadMode+0x8c>)
 8001818:	f7ff fa6a 	bl	8000cf0 <AAEB_uddtCheckForObstacles>
 800181c:	4603      	mov	r3, r0
 800181e:	71fb      	strb	r3, [r7, #7]

	/*check if the car still in a dangerous zone */
	while(lo_uddtAebZone == AAEB_DANGEROUS_ZONE)
 8001820:	e013      	b.n	800184a <ABCM_vThreadMode+0x56>
	{
		UltraSonic_Send_Pulse();
 8001822:	f000 fb5b 	bl	8001edc <UltraSonic_Send_Pulse>
		gl_u32distance	= UltraSonic_Measure_Distance();
 8001826:	f000 fb6f 	bl	8001f08 <UltraSonic_Measure_Distance>
 800182a:	4603      	mov	r3, r0
 800182c:	4a12      	ldr	r2, [pc, #72]	; (8001878 <ABCM_vThreadMode+0x84>)
 800182e:	6013      	str	r3, [r2, #0]
		delay_us(620);
 8001830:	f44f 701b 	mov.w	r0, #620	; 0x26c
 8001834:	f000 fb1c 	bl	8001e70 <delay_us>

		/* stuck in the loop until the car be in a safe zone */
		lo_uddtAebZone = AAEB_uddtCheckForObstacles(&gl_uddtRightDcm , &gl_uddtLeftDcm, gl_u32distance);
 8001838:	4b0f      	ldr	r3, [pc, #60]	; (8001878 <ABCM_vThreadMode+0x84>)
 800183a:	681b      	ldr	r3, [r3, #0]
 800183c:	461a      	mov	r2, r3
 800183e:	490f      	ldr	r1, [pc, #60]	; (800187c <ABCM_vThreadMode+0x88>)
 8001840:	480f      	ldr	r0, [pc, #60]	; (8001880 <ABCM_vThreadMode+0x8c>)
 8001842:	f7ff fa55 	bl	8000cf0 <AAEB_uddtCheckForObstacles>
 8001846:	4603      	mov	r3, r0
 8001848:	71fb      	strb	r3, [r7, #7]
	while(lo_uddtAebZone == AAEB_DANGEROUS_ZONE)
 800184a:	79fb      	ldrb	r3, [r7, #7]
 800184c:	2b01      	cmp	r3, #1
 800184e:	d0e8      	beq.n	8001822 <ABCM_vThreadMode+0x2e>
	}

	/* transmit a massage for the driver with UART with fault code & short description about it*/
	HHC05_uddtTransmitString(MUART1_PERIPHERAL,(uint8_t *)"Car in safe zone you can turn on any system again\r\n");
 8001850:	490c      	ldr	r1, [pc, #48]	; (8001884 <ABCM_vThreadMode+0x90>)
 8001852:	4806      	ldr	r0, [pc, #24]	; (800186c <ABCM_vThreadMode+0x78>)
 8001854:	f000 fab4 	bl	8001dc0 <HHC05_uddtTransmitString>
	gl_uddtCarCondation = ABCM_CAR_ON;
 8001858:	4b0b      	ldr	r3, [pc, #44]	; (8001888 <ABCM_vThreadMode+0x94>)
 800185a:	2201      	movs	r2, #1
 800185c:	701a      	strb	r2, [r3, #0]
}
 800185e:	bf00      	nop
 8001860:	3708      	adds	r7, #8
 8001862:	46bd      	mov	sp, r7
 8001864:	bd80      	pop	{r7, pc}
 8001866:	bf00      	nop
 8001868:	080034b4 	.word	0x080034b4
 800186c:	40011000 	.word	0x40011000
 8001870:	200000a0 	.word	0x200000a0
 8001874:	2000009f 	.word	0x2000009f
 8001878:	20000098 	.word	0x20000098
 800187c:	20000010 	.word	0x20000010
 8001880:	20000000 	.word	0x20000000
 8001884:	080034e8 	.word	0x080034e8
 8001888:	20000095 	.word	0x20000095

0800188c <ALKA_right>:
	}
	return ret;
}

EN_ALKA_systeamState_t ALKA_right(ST_HIR_cfg_t *PS_uddtRightIr,ST_HIR_cfg_t *PS_uddtLeftIr , ST_DCM_cfg_t *PS_uddtRightDcm , ST_DCM_cfg_t *PS_uddtLeftDcm)
{
 800188c:	b580      	push	{r7, lr}
 800188e:	b086      	sub	sp, #24
 8001890:	af00      	add	r7, sp, #0
 8001892:	60f8      	str	r0, [r7, #12]
 8001894:	60b9      	str	r1, [r7, #8]
 8001896:	607a      	str	r2, [r7, #4]
 8001898:	603b      	str	r3, [r7, #0]
	EN_ALKA_systeamState_t ret = ALKA_PTR_NULL;
 800189a:	2304      	movs	r3, #4
 800189c:	75fb      	strb	r3, [r7, #23]

	if((PTR_NULL != PS_uddtRightDcm) && (PTR_NULL != PS_uddtLeftDcm))
 800189e:	687b      	ldr	r3, [r7, #4]
 80018a0:	2b00      	cmp	r3, #0
 80018a2:	d013      	beq.n	80018cc <ALKA_right+0x40>
 80018a4:	683b      	ldr	r3, [r7, #0]
 80018a6:	2b00      	cmp	r3, #0
 80018a8:	d010      	beq.n	80018cc <ALKA_right+0x40>
	{

			HDCM_changeDirection(PS_uddtLeftDcm ,DCM_DIR_ANTI_CLOCKWISE);
 80018aa:	2101      	movs	r1, #1
 80018ac:	6838      	ldr	r0, [r7, #0]
 80018ae:	f000 f9fd 	bl	8001cac <HDCM_changeDirection>
			HDCM_turnOn(PS_uddtLeftDcm);
 80018b2:	6838      	ldr	r0, [r7, #0]
 80018b4:	f000 f9bb 	bl	8001c2e <HDCM_turnOn>
			HDCM_changeDirection(PS_uddtRightDcm ,DCM_DIR_CLOCKWISE);
 80018b8:	2100      	movs	r1, #0
 80018ba:	6878      	ldr	r0, [r7, #4]
 80018bc:	f000 f9f6 	bl	8001cac <HDCM_changeDirection>
			HDCM_turnOn(PS_uddtRightDcm);
 80018c0:	6878      	ldr	r0, [r7, #4]
 80018c2:	f000 f9b4 	bl	8001c2e <HDCM_turnOn>

		ret = ALKA_POS_SET;
 80018c6:	2305      	movs	r3, #5
 80018c8:	75fb      	strb	r3, [r7, #23]
 80018ca:	e001      	b.n	80018d0 <ALKA_right+0x44>
	}
	else
	{
		ret = ALKA_PTR_NULL;
 80018cc:	2304      	movs	r3, #4
 80018ce:	75fb      	strb	r3, [r7, #23]
	}
	return ret;
 80018d0:	7dfb      	ldrb	r3, [r7, #23]
}
 80018d2:	4618      	mov	r0, r3
 80018d4:	3718      	adds	r7, #24
 80018d6:	46bd      	mov	sp, r7
 80018d8:	bd80      	pop	{r7, pc}

080018da <ALKA_forward>:

EN_ALKA_systeamState_t ALKA_forward(ST_HIR_cfg_t *PS_uddtRightIr,ST_HIR_cfg_t *PS_uddtLeftIr , ST_DCM_cfg_t *PS_uddtRightDcm , ST_DCM_cfg_t *PS_uddtLeftDcm)
{
 80018da:	b580      	push	{r7, lr}
 80018dc:	b086      	sub	sp, #24
 80018de:	af00      	add	r7, sp, #0
 80018e0:	60f8      	str	r0, [r7, #12]
 80018e2:	60b9      	str	r1, [r7, #8]
 80018e4:	607a      	str	r2, [r7, #4]
 80018e6:	603b      	str	r3, [r7, #0]
	EN_ALKA_systeamState_t ret = ALKA_PTR_NULL;
 80018e8:	2304      	movs	r3, #4
 80018ea:	75fb      	strb	r3, [r7, #23]

	if((PTR_NULL != PS_uddtRightDcm) && (PTR_NULL != PS_uddtLeftDcm))
 80018ec:	687b      	ldr	r3, [r7, #4]
 80018ee:	2b00      	cmp	r3, #0
 80018f0:	d013      	beq.n	800191a <ALKA_forward+0x40>
 80018f2:	683b      	ldr	r3, [r7, #0]
 80018f4:	2b00      	cmp	r3, #0
 80018f6:	d010      	beq.n	800191a <ALKA_forward+0x40>
	{

			HDCM_changeDirection(PS_uddtLeftDcm ,DCM_DIR_CLOCKWISE);
 80018f8:	2100      	movs	r1, #0
 80018fa:	6838      	ldr	r0, [r7, #0]
 80018fc:	f000 f9d6 	bl	8001cac <HDCM_changeDirection>
			HDCM_turnOn(PS_uddtLeftDcm);
 8001900:	6838      	ldr	r0, [r7, #0]
 8001902:	f000 f994 	bl	8001c2e <HDCM_turnOn>
			HDCM_changeDirection(PS_uddtRightDcm ,DCM_DIR_CLOCKWISE);
 8001906:	2100      	movs	r1, #0
 8001908:	6878      	ldr	r0, [r7, #4]
 800190a:	f000 f9cf 	bl	8001cac <HDCM_changeDirection>
			HDCM_turnOn(PS_uddtRightDcm);
 800190e:	6878      	ldr	r0, [r7, #4]
 8001910:	f000 f98d 	bl	8001c2e <HDCM_turnOn>

		ret = ALKA_POS_SET;
 8001914:	2305      	movs	r3, #5
 8001916:	75fb      	strb	r3, [r7, #23]
 8001918:	e001      	b.n	800191e <ALKA_forward+0x44>
	}
	else
	{
		ret = ALKA_PTR_NULL;
 800191a:	2304      	movs	r3, #4
 800191c:	75fb      	strb	r3, [r7, #23]
	}
	return ret;
 800191e:	7dfb      	ldrb	r3, [r7, #23]
}
 8001920:	4618      	mov	r0, r3
 8001922:	3718      	adds	r7, #24
 8001924:	46bd      	mov	sp, r7
 8001926:	bd80      	pop	{r7, pc}

08001928 <ANCC_vStartNcc>:
#include "../../../Inc/APPLICATION/Normal_Cruise_Control/ncc_interface.h"

static uint8_t gl_u8NccSpeedLimit = 0;

void ANCC_vStartNcc(ST_DCM_cfg_t *leftdcm,ST_DCM_cfg_t *rightdcm, uint8_t copy_u8Speed)
{
 8001928:	b580      	push	{r7, lr}
 800192a:	b084      	sub	sp, #16
 800192c:	af00      	add	r7, sp, #0
 800192e:	60f8      	str	r0, [r7, #12]
 8001930:	60b9      	str	r1, [r7, #8]
 8001932:	4613      	mov	r3, r2
 8001934:	71fb      	strb	r3, [r7, #7]
	gl_u8NccSpeedLimit = copy_u8Speed; /* set gl_u8NccSpeedLimit with the default speed limit of car */
 8001936:	4a0a      	ldr	r2, [pc, #40]	; (8001960 <ANCC_vStartNcc+0x38>)
 8001938:	79fb      	ldrb	r3, [r7, #7]
 800193a:	7013      	strb	r3, [r2, #0]
	HDCM_controlSpeed(copy_u8Speed); /* set the speed of NCC taken from driver */
 800193c:	79fb      	ldrb	r3, [r7, #7]
 800193e:	4618      	mov	r0, r3
 8001940:	f000 f9dc 	bl	8001cfc <HDCM_controlSpeed>
	HDCM_turnOn(leftdcm); /* turn dc motor on to start moving the car */
 8001944:	68f8      	ldr	r0, [r7, #12]
 8001946:	f000 f972 	bl	8001c2e <HDCM_turnOn>
	HDCM_turnOn(rightdcm);
 800194a:	68b8      	ldr	r0, [r7, #8]
 800194c:	f000 f96f 	bl	8001c2e <HDCM_turnOn>
	HHC05_uddtTransmitString(MUART1_PERIPHERAL,(uint8_t *)"Ncc Is Working Now \r\n");
 8001950:	4904      	ldr	r1, [pc, #16]	; (8001964 <ANCC_vStartNcc+0x3c>)
 8001952:	4805      	ldr	r0, [pc, #20]	; (8001968 <ANCC_vStartNcc+0x40>)
 8001954:	f000 fa34 	bl	8001dc0 <HHC05_uddtTransmitString>
}
 8001958:	bf00      	nop
 800195a:	3710      	adds	r7, #16
 800195c:	46bd      	mov	sp, r7
 800195e:	bd80      	pop	{r7, pc}
 8001960:	200000a6 	.word	0x200000a6
 8001964:	0800351c 	.word	0x0800351c
 8001968:	40011000 	.word	0x40011000

0800196c <ANCC_vStopNcc>:

void ANCC_vStopNcc(ST_DCM_cfg_t *leftdcm,ST_DCM_cfg_t *rightdcm)
{
 800196c:	b580      	push	{r7, lr}
 800196e:	b082      	sub	sp, #8
 8001970:	af00      	add	r7, sp, #0
 8001972:	6078      	str	r0, [r7, #4]
 8001974:	6039      	str	r1, [r7, #0]
	MTMR_vStopTimer(MTMR2);
 8001976:	2000      	movs	r0, #0
 8001978:	f000 ff62 	bl	8002840 <MTMR_vStopTimer>
	//HDCM_controlSpeed(STOP_SPEED); /* set the speed of NCC to stop speed to turn off pwm*/
	HDCM_turnOff(leftdcm); /* turn off dc motors to stop car */
 800197c:	6878      	ldr	r0, [r7, #4]
 800197e:	f000 f935 	bl	8001bec <HDCM_turnOff>
	HDCM_turnOff(rightdcm);
 8001982:	6838      	ldr	r0, [r7, #0]
 8001984:	f000 f932 	bl	8001bec <HDCM_turnOff>
}
 8001988:	bf00      	nop
 800198a:	3708      	adds	r7, #8
 800198c:	46bd      	mov	sp, r7
 800198e:	bd80      	pop	{r7, pc}

08001990 <ANCC_vChangeNccSpeedLimit>:

uint8_t ANCC_vChangeNccSpeedLimit(uint8_t copy_u8SpeedAction)
{
 8001990:	b580      	push	{r7, lr}
 8001992:	b082      	sub	sp, #8
 8001994:	af00      	add	r7, sp, #0
 8001996:	4603      	mov	r3, r0
 8001998:	71fb      	strb	r3, [r7, #7]
	switch(copy_u8SpeedAction)
 800199a:	79fb      	ldrb	r3, [r7, #7]
 800199c:	2b2b      	cmp	r3, #43	; 0x2b
 800199e:	d002      	beq.n	80019a6 <ANCC_vChangeNccSpeedLimit+0x16>
 80019a0:	2b2d      	cmp	r3, #45	; 0x2d
 80019a2:	d00c      	beq.n	80019be <ANCC_vChangeNccSpeedLimit+0x2e>
			break;
		}
		default :
		{
			/*Do Nothing*/
			break;
 80019a4:	e017      	b.n	80019d6 <ANCC_vChangeNccSpeedLimit+0x46>
			gl_u8NccSpeedLimit+=10;
 80019a6:	4b0f      	ldr	r3, [pc, #60]	; (80019e4 <ANCC_vChangeNccSpeedLimit+0x54>)
 80019a8:	781b      	ldrb	r3, [r3, #0]
 80019aa:	330a      	adds	r3, #10
 80019ac:	b2da      	uxtb	r2, r3
 80019ae:	4b0d      	ldr	r3, [pc, #52]	; (80019e4 <ANCC_vChangeNccSpeedLimit+0x54>)
 80019b0:	701a      	strb	r2, [r3, #0]
			HDCM_controlSpeed(gl_u8NccSpeedLimit);
 80019b2:	4b0c      	ldr	r3, [pc, #48]	; (80019e4 <ANCC_vChangeNccSpeedLimit+0x54>)
 80019b4:	781b      	ldrb	r3, [r3, #0]
 80019b6:	4618      	mov	r0, r3
 80019b8:	f000 f9a0 	bl	8001cfc <HDCM_controlSpeed>
			break;
 80019bc:	e00b      	b.n	80019d6 <ANCC_vChangeNccSpeedLimit+0x46>
			gl_u8NccSpeedLimit-=10;
 80019be:	4b09      	ldr	r3, [pc, #36]	; (80019e4 <ANCC_vChangeNccSpeedLimit+0x54>)
 80019c0:	781b      	ldrb	r3, [r3, #0]
 80019c2:	3b0a      	subs	r3, #10
 80019c4:	b2da      	uxtb	r2, r3
 80019c6:	4b07      	ldr	r3, [pc, #28]	; (80019e4 <ANCC_vChangeNccSpeedLimit+0x54>)
 80019c8:	701a      	strb	r2, [r3, #0]
			HDCM_controlSpeed(gl_u8NccSpeedLimit);
 80019ca:	4b06      	ldr	r3, [pc, #24]	; (80019e4 <ANCC_vChangeNccSpeedLimit+0x54>)
 80019cc:	781b      	ldrb	r3, [r3, #0]
 80019ce:	4618      	mov	r0, r3
 80019d0:	f000 f994 	bl	8001cfc <HDCM_controlSpeed>
			break;
 80019d4:	bf00      	nop
		}
	}
	return gl_u8NccSpeedLimit;
 80019d6:	4b03      	ldr	r3, [pc, #12]	; (80019e4 <ANCC_vChangeNccSpeedLimit+0x54>)
 80019d8:	781b      	ldrb	r3, [r3, #0]
}
 80019da:	4618      	mov	r0, r3
 80019dc:	3708      	adds	r7, #8
 80019de:	46bd      	mov	sp, r7
 80019e0:	bd80      	pop	{r7, pc}
 80019e2:	bf00      	nop
 80019e4:	200000a6 	.word	0x200000a6

080019e8 <AUDI_vInitInterface>:

#include "../../../Inc/APPLICATION/User_Dashboard_Interface/udi_interface.h"


void AUDI_vInitInterface(ST_MUART_RegistersMap_t *PS_USARTx , ST_MUSART_cfg_t const *PS_uddtUartCfg , void (*ptr)(void))
{
 80019e8:	b580      	push	{r7, lr}
 80019ea:	b084      	sub	sp, #16
 80019ec:	af00      	add	r7, sp, #0
 80019ee:	60f8      	str	r0, [r7, #12]
 80019f0:	60b9      	str	r1, [r7, #8]
 80019f2:	607a      	str	r2, [r7, #4]
	 /* USART init*/
	HHC05_uddtInit(PS_USARTx , PS_uddtUartCfg);
 80019f4:	68b9      	ldr	r1, [r7, #8]
 80019f6:	68f8      	ldr	r0, [r7, #12]
 80019f8:	f000 f9b2 	bl	8001d60 <HHC05_uddtInit>
	/* USART enable*/
	HHC05_uddtEnable(PS_USARTx);
 80019fc:	68f8      	ldr	r0, [r7, #12]
 80019fe:	f000 f9bf 	bl	8001d80 <HHC05_uddtEnable>
	/*initialise interrupt of UART2 */
	HHC05_RxIntSetStatus(PS_USARTx , MUSART_ENABLE);
 8001a02:	2101      	movs	r1, #1
 8001a04:	68f8      	ldr	r0, [r7, #12]
 8001a06:	f000 f9eb 	bl	8001de0 <HHC05_RxIntSetStatus>
	/*set callback function of the receive interrupt with function  ESP_uartCallback*/
	HHC05_uddtSetCallBackUart1(ptr);
 8001a0a:	6878      	ldr	r0, [r7, #4]
 8001a0c:	f000 f9fa 	bl	8001e04 <HHC05_uddtSetCallBackUart1>
}
 8001a10:	bf00      	nop
 8001a12:	3710      	adds	r7, #16
 8001a14:	46bd      	mov	sp, r7
 8001a16:	bd80      	pop	{r7, pc}

08001a18 <AUDI_vStandByDashboard>:

void AUDI_vStandByDashboard(ST_MUART_RegistersMap_t *PS_USARTx)
{
 8001a18:	b580      	push	{r7, lr}
 8001a1a:	b0fa      	sub	sp, #488	; 0x1e8
 8001a1c:	af00      	add	r7, sp, #0
 8001a1e:	f507 73f4 	add.w	r3, r7, #488	; 0x1e8
 8001a22:	f5a3 73f2 	sub.w	r3, r3, #484	; 0x1e4
 8001a26:	6018      	str	r0, [r3, #0]

	uint8_t lo_u8CarDashboardTemplate[] = {
 8001a28:	f507 73f4 	add.w	r3, r7, #488	; 0x1e8
 8001a2c:	f5a3 7392 	sub.w	r3, r3, #292	; 0x124
 8001a30:	4a15      	ldr	r2, [pc, #84]	; (8001a88 <AUDI_vStandByDashboard+0x70>)
 8001a32:	4618      	mov	r0, r3
 8001a34:	4611      	mov	r1, r2
 8001a36:	f240 1321 	movw	r3, #289	; 0x121
 8001a3a:	461a      	mov	r2, r3
 8001a3c:	f001 fb50 	bl	80030e0 <memcpy>
			'|', ' ', 'A', 'C', 'C', ' ', 'S', 't', 'a', 't', 'u', 's', ':', ' ', '[', ' ', ' ', ' ','O', 'F', 'F', ' ', ' ',  ' ', ' ', ']', ' ', ' ', ' ', ' ', ' ', ' ', ' ', '|','\r','\n',
			'-', '-', '-', '-', '-', '-', '-', '-', '-', '-', '-', '-', '-', '-', '-', '-', '-', '-', '-', '-', '-', '-', '-', '-', '-', '-', '-', '-', '-', '-', '-', '-', '-', '-','\r','\n',
			'\0'
	};

	uint8_t lo_u8TurnCarOn[] = {
 8001a40:	f507 73f4 	add.w	r3, r7, #488	; 0x1e8
 8001a44:	f5a3 73ee 	sub.w	r3, r3, #476	; 0x1dc
 8001a48:	4a10      	ldr	r2, [pc, #64]	; (8001a8c <AUDI_vStandByDashboard+0x74>)
 8001a4a:	4618      	mov	r0, r3
 8001a4c:	4611      	mov	r1, r2
 8001a4e:	23b5      	movs	r3, #181	; 0xb5
 8001a50:	461a      	mov	r2, r3
 8001a52:	f001 fb45 	bl	80030e0 <memcpy>
			'-', '-', '-', '-', '-', '-', '-', '-', '-', '-', '-', '-', '-', '-', '-', '-', '-', '-', '-', '-', '-', '-', '-', '-', '-', '-', '-', '-', '-', '-', '-', '-', '-', '-','\r','\n',
			'\0'
	};


	HHC05_uddtTransmitString(PS_USARTx,lo_u8CarDashboardTemplate);
 8001a56:	f107 02c4 	add.w	r2, r7, #196	; 0xc4
 8001a5a:	f507 73f4 	add.w	r3, r7, #488	; 0x1e8
 8001a5e:	f5a3 73f2 	sub.w	r3, r3, #484	; 0x1e4
 8001a62:	4611      	mov	r1, r2
 8001a64:	6818      	ldr	r0, [r3, #0]
 8001a66:	f000 f9ab 	bl	8001dc0 <HHC05_uddtTransmitString>
	HHC05_uddtTransmitString(PS_USARTx,lo_u8TurnCarOn);
 8001a6a:	f107 020c 	add.w	r2, r7, #12
 8001a6e:	f507 73f4 	add.w	r3, r7, #488	; 0x1e8
 8001a72:	f5a3 73f2 	sub.w	r3, r3, #484	; 0x1e4
 8001a76:	4611      	mov	r1, r2
 8001a78:	6818      	ldr	r0, [r3, #0]
 8001a7a:	f000 f9a1 	bl	8001dc0 <HHC05_uddtTransmitString>

}
 8001a7e:	bf00      	nop
 8001a80:	f507 77f4 	add.w	r7, r7, #488	; 0x1e8
 8001a84:	46bd      	mov	sp, r7
 8001a86:	bd80      	pop	{r7, pc}
 8001a88:	08003534 	.word	0x08003534
 8001a8c:	08003658 	.word	0x08003658

08001a90 <AUDI_vOnDashboard>:

void AUDI_vOnDashboard(ST_MUART_RegistersMap_t *PS_USARTx)
{
 8001a90:	b580      	push	{r7, lr}
 8001a92:	b0d4      	sub	sp, #336	; 0x150
 8001a94:	af00      	add	r7, sp, #0
 8001a96:	f507 73a8 	add.w	r3, r7, #336	; 0x150
 8001a9a:	f5a3 73a6 	sub.w	r3, r3, #332	; 0x14c
 8001a9e:	6018      	str	r0, [r3, #0]
	uint8_t lo_u8CarOptions[] = {
 8001aa0:	f507 73a8 	add.w	r3, r7, #336	; 0x150
 8001aa4:	f5a3 73a2 	sub.w	r3, r3, #324	; 0x144
 8001aa8:	4a0b      	ldr	r2, [pc, #44]	; (8001ad8 <AUDI_vOnDashboard+0x48>)
 8001aaa:	4618      	mov	r0, r3
 8001aac:	4611      	mov	r1, r2
 8001aae:	f44f 73a2 	mov.w	r3, #324	; 0x144
 8001ab2:	461a      	mov	r2, r3
 8001ab4:	f001 fb14 	bl	80030e0 <memcpy>
			'|', ' ', 'T', 'U', 'R', 'N', ' ', 'A', 'C', 'C',' ','O','F','F', ':', ' ', ' ', ' ', ' ','[', ' ', ' ',' ',' ', 'z', ' ', ' ', ' ', ']',  ' ', ' ', ' ', ' ', '|','\r','\n',
			'-', '-', '-', '-', '-', '-', '-', '-', '-', '-', '-', '-', '-', '-', '-', '-', '-', '-', '-', '-', '-', '-', '-', '-', '-', '-', '-', '-', '-', '-', '-', '-', '-', '-','\r','\n',
			'\0'
	};

	HHC05_uddtTransmitString(PS_USARTx,lo_u8CarOptions);
 8001ab8:	f107 020c 	add.w	r2, r7, #12
 8001abc:	f507 73a8 	add.w	r3, r7, #336	; 0x150
 8001ac0:	f5a3 73a6 	sub.w	r3, r3, #332	; 0x14c
 8001ac4:	4611      	mov	r1, r2
 8001ac6:	6818      	ldr	r0, [r3, #0]
 8001ac8:	f000 f97a 	bl	8001dc0 <HHC05_uddtTransmitString>

}
 8001acc:	bf00      	nop
 8001ace:	f507 77a8 	add.w	r7, r7, #336	; 0x150
 8001ad2:	46bd      	mov	sp, r7
 8001ad4:	bd80      	pop	{r7, pc}
 8001ad6:	bf00      	nop
 8001ad8:	08003710 	.word	0x08003710

08001adc <HDCM_init>:

#include "../../../Inc/HAL/dcm/dcm_interface.h"


EN_DCM_systemState_t HDCM_init(ST_DCM_cfg_t *dcmCfg)
{
 8001adc:	b580      	push	{r7, lr}
 8001ade:	b090      	sub	sp, #64	; 0x40
 8001ae0:	af00      	add	r7, sp, #0
 8001ae2:	6078      	str	r0, [r7, #4]
	EN_DCM_systemState_t ret;
	if(dcmCfg == PTR_NULL)
 8001ae4:	687b      	ldr	r3, [r7, #4]
 8001ae6:	2b00      	cmp	r3, #0
 8001ae8:	d103      	bne.n	8001af2 <HDCM_init+0x16>
	{
		ret = DCM_NOK;
 8001aea:	2301      	movs	r3, #1
 8001aec:	f887 303f 	strb.w	r3, [r7, #63]	; 0x3f
 8001af0:	e076      	b.n	8001be0 <HDCM_init+0x104>
	}
	else
	{
		if(dcmCfg->DCM_defaultDirection == DCM_DIR_CLOCKWISE)
 8001af2:	687b      	ldr	r3, [r7, #4]
 8001af4:	7b9b      	ldrb	r3, [r3, #14]
 8001af6:	2b00      	cmp	r3, #0
 8001af8:	d13a      	bne.n	8001b70 <HDCM_init+0x94>
		{

			ST_MGPIO_pinCfg_t lo_dcm5vPinData = {dcmCfg->DCM_5vPort, dcmCfg->DCM_5vPin,MGPIO_MODE_OUTPUT,
 8001afa:	687b      	ldr	r3, [r7, #4]
 8001afc:	681b      	ldr	r3, [r3, #0]
 8001afe:	633b      	str	r3, [r7, #48]	; 0x30
 8001b00:	687b      	ldr	r3, [r7, #4]
 8001b02:	791b      	ldrb	r3, [r3, #4]
 8001b04:	f887 3034 	strb.w	r3, [r7, #52]	; 0x34
 8001b08:	2301      	movs	r3, #1
 8001b0a:	f887 3035 	strb.w	r3, [r7, #53]	; 0x35
 8001b0e:	2300      	movs	r3, #0
 8001b10:	f887 3036 	strb.w	r3, [r7, #54]	; 0x36
 8001b14:	2302      	movs	r3, #2
 8001b16:	f887 3037 	strb.w	r3, [r7, #55]	; 0x37
					MGPIO_OUTPUT_RESISTOR_PUSH_PULL , MGPIO_OUTPUT_SPEED_HIGH , dcmCfg->DCM_intialState ,
 8001b1a:	687b      	ldr	r3, [r7, #4]
 8001b1c:	7b5b      	ldrb	r3, [r3, #13]
			ST_MGPIO_pinCfg_t lo_dcm5vPinData = {dcmCfg->DCM_5vPort, dcmCfg->DCM_5vPin,MGPIO_MODE_OUTPUT,
 8001b1e:	f887 3038 	strb.w	r3, [r7, #56]	; 0x38
 8001b22:	2300      	movs	r3, #0
 8001b24:	f887 3039 	strb.w	r3, [r7, #57]	; 0x39
					MGPIO_PULL_FLOATING};
			MGPIO_uddtInitPin(&lo_dcm5vPinData);
 8001b28:	f107 0330 	add.w	r3, r7, #48	; 0x30
 8001b2c:	4618      	mov	r0, r3
 8001b2e:	f000 fc0d 	bl	800234c <MGPIO_uddtInitPin>

			ST_MGPIO_pinCfg_t lo_dcmGndPinData = {dcmCfg->DCM_gndPort, dcmCfg->DCM_gndPin,MGPIO_MODE_OUTPUT,
 8001b32:	687b      	ldr	r3, [r7, #4]
 8001b34:	689b      	ldr	r3, [r3, #8]
 8001b36:	627b      	str	r3, [r7, #36]	; 0x24
 8001b38:	687b      	ldr	r3, [r7, #4]
 8001b3a:	7b1b      	ldrb	r3, [r3, #12]
 8001b3c:	f887 3028 	strb.w	r3, [r7, #40]	; 0x28
 8001b40:	2301      	movs	r3, #1
 8001b42:	f887 3029 	strb.w	r3, [r7, #41]	; 0x29
 8001b46:	2300      	movs	r3, #0
 8001b48:	f887 302a 	strb.w	r3, [r7, #42]	; 0x2a
 8001b4c:	2302      	movs	r3, #2
 8001b4e:	f887 302b 	strb.w	r3, [r7, #43]	; 0x2b
 8001b52:	2300      	movs	r3, #0
 8001b54:	f887 302c 	strb.w	r3, [r7, #44]	; 0x2c
 8001b58:	2300      	movs	r3, #0
 8001b5a:	f887 302d 	strb.w	r3, [r7, #45]	; 0x2d
					MGPIO_OUTPUT_RESISTOR_PUSH_PULL , MGPIO_OUTPUT_SPEED_HIGH , MGPIO_LOGIC_LOW ,
					MGPIO_PULL_FLOATING};
			MGPIO_uddtInitPin(&lo_dcmGndPinData);
 8001b5e:	f107 0324 	add.w	r3, r7, #36	; 0x24
 8001b62:	4618      	mov	r0, r3
 8001b64:	f000 fbf2 	bl	800234c <MGPIO_uddtInitPin>

			ret = DCM_OK;
 8001b68:	2300      	movs	r3, #0
 8001b6a:	f887 303f 	strb.w	r3, [r7, #63]	; 0x3f
 8001b6e:	e037      	b.n	8001be0 <HDCM_init+0x104>
		}
		else if(dcmCfg->DCM_defaultDirection == DCM_DIR_ANTI_CLOCKWISE)
 8001b70:	687b      	ldr	r3, [r7, #4]
 8001b72:	7b9b      	ldrb	r3, [r3, #14]
 8001b74:	2b01      	cmp	r3, #1
 8001b76:	d130      	bne.n	8001bda <HDCM_init+0xfe>
		{

			ST_MGPIO_pinCfg_t lo_dcm5vPinData = {dcmCfg->DCM_5vPort, dcmCfg->DCM_5vPin,MGPIO_MODE_OUTPUT,
 8001b78:	687b      	ldr	r3, [r7, #4]
 8001b7a:	681b      	ldr	r3, [r3, #0]
 8001b7c:	61bb      	str	r3, [r7, #24]
 8001b7e:	687b      	ldr	r3, [r7, #4]
 8001b80:	791b      	ldrb	r3, [r3, #4]
 8001b82:	773b      	strb	r3, [r7, #28]
 8001b84:	2301      	movs	r3, #1
 8001b86:	777b      	strb	r3, [r7, #29]
 8001b88:	2300      	movs	r3, #0
 8001b8a:	77bb      	strb	r3, [r7, #30]
 8001b8c:	2302      	movs	r3, #2
 8001b8e:	77fb      	strb	r3, [r7, #31]
 8001b90:	2300      	movs	r3, #0
 8001b92:	f887 3020 	strb.w	r3, [r7, #32]
 8001b96:	2300      	movs	r3, #0
 8001b98:	f887 3021 	strb.w	r3, [r7, #33]	; 0x21
					MGPIO_OUTPUT_RESISTOR_PUSH_PULL , MGPIO_OUTPUT_SPEED_HIGH ,MGPIO_LOGIC_LOW ,
					MGPIO_PULL_FLOATING};
			MGPIO_uddtInitPin(&lo_dcm5vPinData);
 8001b9c:	f107 0318 	add.w	r3, r7, #24
 8001ba0:	4618      	mov	r0, r3
 8001ba2:	f000 fbd3 	bl	800234c <MGPIO_uddtInitPin>

			ST_MGPIO_pinCfg_t lo_dcmGndPinData = {dcmCfg->DCM_gndPort, dcmCfg->DCM_gndPin,MGPIO_MODE_OUTPUT,
 8001ba6:	687b      	ldr	r3, [r7, #4]
 8001ba8:	689b      	ldr	r3, [r3, #8]
 8001baa:	60fb      	str	r3, [r7, #12]
 8001bac:	687b      	ldr	r3, [r7, #4]
 8001bae:	7b1b      	ldrb	r3, [r3, #12]
 8001bb0:	743b      	strb	r3, [r7, #16]
 8001bb2:	2301      	movs	r3, #1
 8001bb4:	747b      	strb	r3, [r7, #17]
 8001bb6:	2300      	movs	r3, #0
 8001bb8:	74bb      	strb	r3, [r7, #18]
 8001bba:	2302      	movs	r3, #2
 8001bbc:	74fb      	strb	r3, [r7, #19]
					MGPIO_OUTPUT_RESISTOR_PUSH_PULL , MGPIO_OUTPUT_SPEED_HIGH ,  dcmCfg->DCM_intialState ,
 8001bbe:	687b      	ldr	r3, [r7, #4]
 8001bc0:	7b5b      	ldrb	r3, [r3, #13]
			ST_MGPIO_pinCfg_t lo_dcmGndPinData = {dcmCfg->DCM_gndPort, dcmCfg->DCM_gndPin,MGPIO_MODE_OUTPUT,
 8001bc2:	753b      	strb	r3, [r7, #20]
 8001bc4:	2300      	movs	r3, #0
 8001bc6:	757b      	strb	r3, [r7, #21]
					MGPIO_PULL_FLOATING};
			MGPIO_uddtInitPin(&lo_dcmGndPinData);
 8001bc8:	f107 030c 	add.w	r3, r7, #12
 8001bcc:	4618      	mov	r0, r3
 8001bce:	f000 fbbd 	bl	800234c <MGPIO_uddtInitPin>

			ret = DCM_OK;
 8001bd2:	2300      	movs	r3, #0
 8001bd4:	f887 303f 	strb.w	r3, [r7, #63]	; 0x3f
 8001bd8:	e002      	b.n	8001be0 <HDCM_init+0x104>
		}
		else
		{
			ret = DCM_NOK;
 8001bda:	2301      	movs	r3, #1
 8001bdc:	f887 303f 	strb.w	r3, [r7, #63]	; 0x3f
		}

	}
	return ret;
 8001be0:	f897 303f 	ldrb.w	r3, [r7, #63]	; 0x3f
}
 8001be4:	4618      	mov	r0, r3
 8001be6:	3740      	adds	r7, #64	; 0x40
 8001be8:	46bd      	mov	sp, r7
 8001bea:	bd80      	pop	{r7, pc}

08001bec <HDCM_turnOff>:

EN_DCM_systemState_t HDCM_turnOff(ST_DCM_cfg_t *dcmCfg)
{
 8001bec:	b580      	push	{r7, lr}
 8001bee:	b084      	sub	sp, #16
 8001bf0:	af00      	add	r7, sp, #0
 8001bf2:	6078      	str	r0, [r7, #4]
	EN_DCM_systemState_t ret;
	if(dcmCfg == PTR_NULL)
 8001bf4:	687b      	ldr	r3, [r7, #4]
 8001bf6:	2b00      	cmp	r3, #0
 8001bf8:	d102      	bne.n	8001c00 <HDCM_turnOff+0x14>
	{
		ret = DCM_NOK;
 8001bfa:	2301      	movs	r3, #1
 8001bfc:	73fb      	strb	r3, [r7, #15]
 8001bfe:	e011      	b.n	8001c24 <HDCM_turnOff+0x38>
	}
	else
	{
	    MGPIO_uddtSetPinVal(dcmCfg->DCM_5vPort, dcmCfg->DCM_5vPin, MGPIO_LOGIC_LOW);
 8001c00:	687b      	ldr	r3, [r7, #4]
 8001c02:	6818      	ldr	r0, [r3, #0]
 8001c04:	687b      	ldr	r3, [r7, #4]
 8001c06:	791b      	ldrb	r3, [r3, #4]
 8001c08:	2200      	movs	r2, #0
 8001c0a:	4619      	mov	r1, r3
 8001c0c:	f000 fb2d 	bl	800226a <MGPIO_uddtSetPinVal>
	    MGPIO_uddtSetPinVal(dcmCfg->DCM_gndPort , dcmCfg->DCM_gndPin, MGPIO_LOGIC_LOW);
 8001c10:	687b      	ldr	r3, [r7, #4]
 8001c12:	6898      	ldr	r0, [r3, #8]
 8001c14:	687b      	ldr	r3, [r7, #4]
 8001c16:	7b1b      	ldrb	r3, [r3, #12]
 8001c18:	2200      	movs	r2, #0
 8001c1a:	4619      	mov	r1, r3
 8001c1c:	f000 fb25 	bl	800226a <MGPIO_uddtSetPinVal>
		ret = DCM_OK;
 8001c20:	2300      	movs	r3, #0
 8001c22:	73fb      	strb	r3, [r7, #15]
	}
	return ret;
 8001c24:	7bfb      	ldrb	r3, [r7, #15]
}
 8001c26:	4618      	mov	r0, r3
 8001c28:	3710      	adds	r7, #16
 8001c2a:	46bd      	mov	sp, r7
 8001c2c:	bd80      	pop	{r7, pc}

08001c2e <HDCM_turnOn>:

EN_DCM_systemState_t HDCM_turnOn(ST_DCM_cfg_t *dcmCfg)
{
 8001c2e:	b580      	push	{r7, lr}
 8001c30:	b084      	sub	sp, #16
 8001c32:	af00      	add	r7, sp, #0
 8001c34:	6078      	str	r0, [r7, #4]
	EN_DCM_systemState_t ret;
	if(dcmCfg == PTR_NULL)
 8001c36:	687b      	ldr	r3, [r7, #4]
 8001c38:	2b00      	cmp	r3, #0
 8001c3a:	d102      	bne.n	8001c42 <HDCM_turnOn+0x14>
	{
		ret = DCM_NOK;
 8001c3c:	2301      	movs	r3, #1
 8001c3e:	73fb      	strb	r3, [r7, #15]
 8001c40:	e02f      	b.n	8001ca2 <HDCM_turnOn+0x74>
	}
	else
	{
		if(dcmCfg->DCM_defaultDirection == DCM_DIR_CLOCKWISE)
 8001c42:	687b      	ldr	r3, [r7, #4]
 8001c44:	7b9b      	ldrb	r3, [r3, #14]
 8001c46:	2b00      	cmp	r3, #0
 8001c48:	d112      	bne.n	8001c70 <HDCM_turnOn+0x42>
		{
		    MGPIO_uddtSetPinVal(dcmCfg->DCM_5vPort, dcmCfg->DCM_5vPin, MGPIO_LOGIC_HIGH);
 8001c4a:	687b      	ldr	r3, [r7, #4]
 8001c4c:	6818      	ldr	r0, [r3, #0]
 8001c4e:	687b      	ldr	r3, [r7, #4]
 8001c50:	791b      	ldrb	r3, [r3, #4]
 8001c52:	2201      	movs	r2, #1
 8001c54:	4619      	mov	r1, r3
 8001c56:	f000 fb08 	bl	800226a <MGPIO_uddtSetPinVal>
		    MGPIO_uddtSetPinVal(dcmCfg->DCM_gndPort , dcmCfg->DCM_gndPin, MGPIO_LOGIC_LOW);
 8001c5a:	687b      	ldr	r3, [r7, #4]
 8001c5c:	6898      	ldr	r0, [r3, #8]
 8001c5e:	687b      	ldr	r3, [r7, #4]
 8001c60:	7b1b      	ldrb	r3, [r3, #12]
 8001c62:	2200      	movs	r2, #0
 8001c64:	4619      	mov	r1, r3
 8001c66:	f000 fb00 	bl	800226a <MGPIO_uddtSetPinVal>

			ret = DCM_OK;
 8001c6a:	2300      	movs	r3, #0
 8001c6c:	73fb      	strb	r3, [r7, #15]
 8001c6e:	e018      	b.n	8001ca2 <HDCM_turnOn+0x74>
		}
		else if(dcmCfg->DCM_defaultDirection == DCM_DIR_ANTI_CLOCKWISE)
 8001c70:	687b      	ldr	r3, [r7, #4]
 8001c72:	7b9b      	ldrb	r3, [r3, #14]
 8001c74:	2b01      	cmp	r3, #1
 8001c76:	d112      	bne.n	8001c9e <HDCM_turnOn+0x70>
		{
		    MGPIO_uddtSetPinVal(dcmCfg->DCM_5vPort, dcmCfg->DCM_5vPin, MGPIO_LOGIC_LOW);
 8001c78:	687b      	ldr	r3, [r7, #4]
 8001c7a:	6818      	ldr	r0, [r3, #0]
 8001c7c:	687b      	ldr	r3, [r7, #4]
 8001c7e:	791b      	ldrb	r3, [r3, #4]
 8001c80:	2200      	movs	r2, #0
 8001c82:	4619      	mov	r1, r3
 8001c84:	f000 faf1 	bl	800226a <MGPIO_uddtSetPinVal>
		    MGPIO_uddtSetPinVal(dcmCfg->DCM_gndPort , dcmCfg->DCM_gndPin, MGPIO_LOGIC_HIGH);
 8001c88:	687b      	ldr	r3, [r7, #4]
 8001c8a:	6898      	ldr	r0, [r3, #8]
 8001c8c:	687b      	ldr	r3, [r7, #4]
 8001c8e:	7b1b      	ldrb	r3, [r3, #12]
 8001c90:	2201      	movs	r2, #1
 8001c92:	4619      	mov	r1, r3
 8001c94:	f000 fae9 	bl	800226a <MGPIO_uddtSetPinVal>

			ret = DCM_OK;
 8001c98:	2300      	movs	r3, #0
 8001c9a:	73fb      	strb	r3, [r7, #15]
 8001c9c:	e001      	b.n	8001ca2 <HDCM_turnOn+0x74>
		}
		else
		{
			ret = DCM_NOK;
 8001c9e:	2301      	movs	r3, #1
 8001ca0:	73fb      	strb	r3, [r7, #15]
		}

	}
	return ret;
 8001ca2:	7bfb      	ldrb	r3, [r7, #15]
}
 8001ca4:	4618      	mov	r0, r3
 8001ca6:	3710      	adds	r7, #16
 8001ca8:	46bd      	mov	sp, r7
 8001caa:	bd80      	pop	{r7, pc}

08001cac <HDCM_changeDirection>:

EN_DCM_systemState_t HDCM_changeDirection(ST_DCM_cfg_t *dcmCfg , EN_DCM_direction_t dcmDirction)
{
 8001cac:	b480      	push	{r7}
 8001cae:	b085      	sub	sp, #20
 8001cb0:	af00      	add	r7, sp, #0
 8001cb2:	6078      	str	r0, [r7, #4]
 8001cb4:	460b      	mov	r3, r1
 8001cb6:	70fb      	strb	r3, [r7, #3]
	EN_DCM_systemState_t ret;
	if(dcmCfg == PTR_NULL)
 8001cb8:	687b      	ldr	r3, [r7, #4]
 8001cba:	2b00      	cmp	r3, #0
 8001cbc:	d102      	bne.n	8001cc4 <HDCM_changeDirection+0x18>
	{
		ret = DCM_NOK;
 8001cbe:	2301      	movs	r3, #1
 8001cc0:	73fb      	strb	r3, [r7, #15]
 8001cc2:	e013      	b.n	8001cec <HDCM_changeDirection+0x40>
	}
	else
	{
		if(dcmDirction == DCM_DIR_CLOCKWISE)
 8001cc4:	78fb      	ldrb	r3, [r7, #3]
 8001cc6:	2b00      	cmp	r3, #0
 8001cc8:	d105      	bne.n	8001cd6 <HDCM_changeDirection+0x2a>
		{
			dcmCfg->DCM_defaultDirection = dcmDirction;
 8001cca:	687b      	ldr	r3, [r7, #4]
 8001ccc:	78fa      	ldrb	r2, [r7, #3]
 8001cce:	739a      	strb	r2, [r3, #14]
			ret = DCM_OK;
 8001cd0:	2300      	movs	r3, #0
 8001cd2:	73fb      	strb	r3, [r7, #15]
 8001cd4:	e00a      	b.n	8001cec <HDCM_changeDirection+0x40>
		}
		else if(dcmDirction == DCM_DIR_ANTI_CLOCKWISE)
 8001cd6:	78fb      	ldrb	r3, [r7, #3]
 8001cd8:	2b01      	cmp	r3, #1
 8001cda:	d105      	bne.n	8001ce8 <HDCM_changeDirection+0x3c>
		{
			dcmCfg->DCM_defaultDirection = dcmDirction;
 8001cdc:	687b      	ldr	r3, [r7, #4]
 8001cde:	78fa      	ldrb	r2, [r7, #3]
 8001ce0:	739a      	strb	r2, [r3, #14]
			ret = DCM_OK;
 8001ce2:	2300      	movs	r3, #0
 8001ce4:	73fb      	strb	r3, [r7, #15]
 8001ce6:	e001      	b.n	8001cec <HDCM_changeDirection+0x40>
		}
		else
		{
			ret = DCM_NOK;
 8001ce8:	2301      	movs	r3, #1
 8001cea:	73fb      	strb	r3, [r7, #15]
		}
	}
	return ret;
 8001cec:	7bfb      	ldrb	r3, [r7, #15]
}
 8001cee:	4618      	mov	r0, r3
 8001cf0:	3714      	adds	r7, #20
 8001cf2:	46bd      	mov	sp, r7
 8001cf4:	f85d 7b04 	ldr.w	r7, [sp], #4
 8001cf8:	4770      	bx	lr
	...

08001cfc <HDCM_controlSpeed>:

EN_DCM_systemState_t HDCM_controlSpeed(uint8_t copy_u8Speed)
{
 8001cfc:	b580      	push	{r7, lr}
 8001cfe:	b086      	sub	sp, #24
 8001d00:	af00      	add	r7, sp, #0
 8001d02:	4603      	mov	r3, r0
 8001d04:	71fb      	strb	r3, [r7, #7]

	ST_MGPIO_altPinCfg_t lo_altPwmPinA0 = {MGPIOA_PERIPHERAL,MGPIO_PIN0,MGPIO_ALTFN_1,
 8001d06:	4a15      	ldr	r2, [pc, #84]	; (8001d5c <HDCM_controlSpeed+0x60>)
 8001d08:	f107 0308 	add.w	r3, r7, #8
 8001d0c:	ca07      	ldmia	r2, {r0, r1, r2}
 8001d0e:	e883 0007 	stmia.w	r3, {r0, r1, r2}
			MGPIO_OUTPUT_RESISTOR_PUSH_PULL,MGPIO_OUTPUT_SPEED_MEDIUM,MGPIO_PULL_FLOATING};
	MGPIO_uddtInitAltPin(&lo_altPwmPinA0);
 8001d12:	f107 0308 	add.w	r3, r7, #8
 8001d16:	4618      	mov	r0, r3
 8001d18:	f000 fb6c 	bl	80023f4 <MGPIO_uddtInitAltPin>

	/* speed init */
	MTMR_vSetTimerPrescaler(MTMR2, 32);
 8001d1c:	2120      	movs	r1, #32
 8001d1e:	2000      	movs	r0, #0
 8001d20:	f000 fdce 	bl	80028c0 <MTMR_vSetTimerPrescaler>
	MTMR_vSetTimerARR(MTMR2, 10000 - 1);
 8001d24:	f242 710f 	movw	r1, #9999	; 0x270f
 8001d28:	2000      	movs	r0, #0
 8001d2a:	f000 fefd 	bl	8002b28 <MTMR_vSetTimerARR>
	MTMR_vSetTimerChannelOutput(MTMR2, MTMR_MODE_PWM_MODE1, MTMR_CH1);
 8001d2e:	2201      	movs	r2, #1
 8001d30:	2106      	movs	r1, #6
 8001d32:	2000      	movs	r0, #0
 8001d34:	f000 fe12 	bl	800295c <MTMR_vSetTimerChannelOutput>

	uint32_t counter = 100 * copy_u8Speed;
 8001d38:	79fb      	ldrb	r3, [r7, #7]
 8001d3a:	2264      	movs	r2, #100	; 0x64
 8001d3c:	fb02 f303 	mul.w	r3, r2, r3
 8001d40:	617b      	str	r3, [r7, #20]
	MTMR_vSetTimerCMPVal(MTMR2, MTMR_CH1, counter);
 8001d42:	697a      	ldr	r2, [r7, #20]
 8001d44:	2101      	movs	r1, #1
 8001d46:	2000      	movs	r0, #0
 8001d48:	f000 fe90 	bl	8002a6c <MTMR_vSetTimerCMPVal>
	MTMR_vStartTimer(MTMR2);
 8001d4c:	2000      	movs	r0, #0
 8001d4e:	f000 fd37 	bl	80027c0 <MTMR_vStartTimer>
}
 8001d52:	bf00      	nop
 8001d54:	4618      	mov	r0, r3
 8001d56:	3718      	adds	r7, #24
 8001d58:	46bd      	mov	sp, r7
 8001d5a:	bd80      	pop	{r7, pc}
 8001d5c:	08003854 	.word	0x08003854

08001d60 <HHC05_uddtInit>:

#include "../../../Inc/HAL/hc05/hc05_interface.h"


EN_HHC05_systeamState_t  HHC05_uddtInit(ST_MUART_RegistersMap_t *PS_USARTx , ST_MUSART_cfg_t const *PS_uddtUartCfg)
{
 8001d60:	b580      	push	{r7, lr}
 8001d62:	b084      	sub	sp, #16
 8001d64:	af00      	add	r7, sp, #0
 8001d66:	6078      	str	r0, [r7, #4]
 8001d68:	6039      	str	r1, [r7, #0]
	EN_HHC05_systeamState_t ret = MUSART_uddtInit(PS_USARTx,PS_uddtUartCfg);
 8001d6a:	6839      	ldr	r1, [r7, #0]
 8001d6c:	6878      	ldr	r0, [r7, #4]
 8001d6e:	f000 ff03 	bl	8002b78 <MUSART_uddtInit>
 8001d72:	4603      	mov	r3, r0
 8001d74:	73fb      	strb	r3, [r7, #15]
	return ret;
 8001d76:	7bfb      	ldrb	r3, [r7, #15]
}
 8001d78:	4618      	mov	r0, r3
 8001d7a:	3710      	adds	r7, #16
 8001d7c:	46bd      	mov	sp, r7
 8001d7e:	bd80      	pop	{r7, pc}

08001d80 <HHC05_uddtEnable>:

EN_HHC05_systeamState_t  HHC05_uddtEnable(ST_MUART_RegistersMap_t *PS_USARTx)
{
 8001d80:	b580      	push	{r7, lr}
 8001d82:	b084      	sub	sp, #16
 8001d84:	af00      	add	r7, sp, #0
 8001d86:	6078      	str	r0, [r7, #4]
	EN_HHC05_systeamState_t ret = MUSART_uddtEnable(PS_USARTx);
 8001d88:	6878      	ldr	r0, [r7, #4]
 8001d8a:	f001 f855 	bl	8002e38 <MUSART_uddtEnable>
 8001d8e:	4603      	mov	r3, r0
 8001d90:	73fb      	strb	r3, [r7, #15]
	return ret;
 8001d92:	7bfb      	ldrb	r3, [r7, #15]
}
 8001d94:	4618      	mov	r0, r3
 8001d96:	3710      	adds	r7, #16
 8001d98:	46bd      	mov	sp, r7
 8001d9a:	bd80      	pop	{r7, pc}

08001d9c <HHC05_uddtTransmitByte>:
	EN_HHC05_systeamState_t ret = HHC05_uddtDisable(PS_USARTx);
	return ret;
}

EN_HHC05_systeamState_t  HHC05_uddtTransmitByte(ST_MUART_RegistersMap_t *PS_USARTx , uint8_t copy_u8ByteToSend)
{
 8001d9c:	b580      	push	{r7, lr}
 8001d9e:	b084      	sub	sp, #16
 8001da0:	af00      	add	r7, sp, #0
 8001da2:	6078      	str	r0, [r7, #4]
 8001da4:	460b      	mov	r3, r1
 8001da6:	70fb      	strb	r3, [r7, #3]
	EN_HHC05_systeamState_t ret = MUSART_uddtTransmitByte(PS_USARTx,copy_u8ByteToSend);
 8001da8:	78fb      	ldrb	r3, [r7, #3]
 8001daa:	4619      	mov	r1, r3
 8001dac:	6878      	ldr	r0, [r7, #4]
 8001dae:	f001 f85e 	bl	8002e6e <MUSART_uddtTransmitByte>
 8001db2:	4603      	mov	r3, r0
 8001db4:	73fb      	strb	r3, [r7, #15]
	return ret;
 8001db6:	7bfb      	ldrb	r3, [r7, #15]
}
 8001db8:	4618      	mov	r0, r3
 8001dba:	3710      	adds	r7, #16
 8001dbc:	46bd      	mov	sp, r7
 8001dbe:	bd80      	pop	{r7, pc}

08001dc0 <HHC05_uddtTransmitString>:

EN_HHC05_systeamState_t  HHC05_uddtTransmitString(ST_MUART_RegistersMap_t *PS_USARTx , uint8_t *copy_u8StringToSend)
{
 8001dc0:	b580      	push	{r7, lr}
 8001dc2:	b084      	sub	sp, #16
 8001dc4:	af00      	add	r7, sp, #0
 8001dc6:	6078      	str	r0, [r7, #4]
 8001dc8:	6039      	str	r1, [r7, #0]
	EN_HHC05_systeamState_t ret = MUSART_uddtTransmitString(PS_USARTx,copy_u8StringToSend);
 8001dca:	6839      	ldr	r1, [r7, #0]
 8001dcc:	6878      	ldr	r0, [r7, #4]
 8001dce:	f001 f87e 	bl	8002ece <MUSART_uddtTransmitString>
 8001dd2:	4603      	mov	r3, r0
 8001dd4:	73fb      	strb	r3, [r7, #15]
	return ret;
 8001dd6:	7bfb      	ldrb	r3, [r7, #15]
}
 8001dd8:	4618      	mov	r0, r3
 8001dda:	3710      	adds	r7, #16
 8001ddc:	46bd      	mov	sp, r7
 8001dde:	bd80      	pop	{r7, pc}

08001de0 <HHC05_RxIntSetStatus>:
	return ret;
}


EN_HHC05_systeamState_t  HHC05_RxIntSetStatus(ST_MUART_RegistersMap_t *PS_USARTx, uint8_t copy_u8Status)
{
 8001de0:	b580      	push	{r7, lr}
 8001de2:	b084      	sub	sp, #16
 8001de4:	af00      	add	r7, sp, #0
 8001de6:	6078      	str	r0, [r7, #4]
 8001de8:	460b      	mov	r3, r1
 8001dea:	70fb      	strb	r3, [r7, #3]
	EN_HHC05_systeamState_t ret = MUSART_RxIntSetStatus(PS_USARTx,copy_u8Status);
 8001dec:	78fb      	ldrb	r3, [r7, #3]
 8001dee:	4619      	mov	r1, r3
 8001df0:	6878      	ldr	r0, [r7, #4]
 8001df2:	f001 f897 	bl	8002f24 <MUSART_RxIntSetStatus>
 8001df6:	4603      	mov	r3, r0
 8001df8:	73fb      	strb	r3, [r7, #15]
	return ret;
 8001dfa:	7bfb      	ldrb	r3, [r7, #15]
}
 8001dfc:	4618      	mov	r0, r3
 8001dfe:	3710      	adds	r7, #16
 8001e00:	46bd      	mov	sp, r7
 8001e02:	bd80      	pop	{r7, pc}

08001e04 <HHC05_uddtSetCallBackUart1>:

EN_HHC05_systeamState_t  HHC05_uddtSetCallBackUart1( void (*ptr) (void) )
{
 8001e04:	b580      	push	{r7, lr}
 8001e06:	b084      	sub	sp, #16
 8001e08:	af00      	add	r7, sp, #0
 8001e0a:	6078      	str	r0, [r7, #4]
	EN_HHC05_systeamState_t ret = MUSART1_uddtSetCallBack(ptr);
 8001e0c:	6878      	ldr	r0, [r7, #4]
 8001e0e:	f001 f8b3 	bl	8002f78 <MUSART1_uddtSetCallBack>
 8001e12:	4603      	mov	r3, r0
 8001e14:	73fb      	strb	r3, [r7, #15]
	return ret;
 8001e16:	7bfb      	ldrb	r3, [r7, #15]
}
 8001e18:	4618      	mov	r0, r3
 8001e1a:	3710      	adds	r7, #16
 8001e1c:	46bd      	mov	sp, r7
 8001e1e:	bd80      	pop	{r7, pc}

08001e20 <HIR_uddtInit>:
/*************************************************************************/

#include "../../../Inc/HAL/ir/IR_interface.h"

EN_HIR_systemState_t HIR_uddtInit(ST_HIR_cfg_t *PS_uddtIrInstance)
{
 8001e20:	b580      	push	{r7, lr}
 8001e22:	b086      	sub	sp, #24
 8001e24:	af00      	add	r7, sp, #0
 8001e26:	6078      	str	r0, [r7, #4]
	EN_HIR_systemState_t ret = HIR_NOK;
 8001e28:	2300      	movs	r3, #0
 8001e2a:	75fb      	strb	r3, [r7, #23]

	if(PTR_NULL != PS_uddtIrInstance)
 8001e2c:	687b      	ldr	r3, [r7, #4]
 8001e2e:	2b00      	cmp	r3, #0
 8001e30:	d017      	beq.n	8001e62 <HIR_uddtInit+0x42>
	{
		ST_MGPIO_pinCfg_t lo_uddtIrPin = {PS_uddtIrInstance->HIR_port,PS_uddtIrInstance->HIR_pin,MGPIO_MODE_INPUT,
 8001e32:	687b      	ldr	r3, [r7, #4]
 8001e34:	681b      	ldr	r3, [r3, #0]
 8001e36:	60bb      	str	r3, [r7, #8]
 8001e38:	687b      	ldr	r3, [r7, #4]
 8001e3a:	791b      	ldrb	r3, [r3, #4]
 8001e3c:	733b      	strb	r3, [r7, #12]
 8001e3e:	2300      	movs	r3, #0
 8001e40:	737b      	strb	r3, [r7, #13]
 8001e42:	2300      	movs	r3, #0
 8001e44:	73bb      	strb	r3, [r7, #14]
 8001e46:	2302      	movs	r3, #2
 8001e48:	73fb      	strb	r3, [r7, #15]
 8001e4a:	2300      	movs	r3, #0
 8001e4c:	743b      	strb	r3, [r7, #16]
 8001e4e:	2300      	movs	r3, #0
 8001e50:	747b      	strb	r3, [r7, #17]
				MGPIO_OUTPUT_RESISTOR_PUSH_PULL , MGPIO_OUTPUT_SPEED_HIGH ,MGPIO_LOGIC_LOW ,
				MGPIO_PULL_FLOATING};
		MGPIO_uddtInitPin(&lo_uddtIrPin);
 8001e52:	f107 0308 	add.w	r3, r7, #8
 8001e56:	4618      	mov	r0, r3
 8001e58:	f000 fa78 	bl	800234c <MGPIO_uddtInitPin>
		ret = HIR_OK;
 8001e5c:	2301      	movs	r3, #1
 8001e5e:	75fb      	strb	r3, [r7, #23]
 8001e60:	e001      	b.n	8001e66 <HIR_uddtInit+0x46>
	}
	else
	{
		ret = HIR_PTR_NULL;
 8001e62:	2302      	movs	r3, #2
 8001e64:	75fb      	strb	r3, [r7, #23]
	}

	return ret;
 8001e66:	7dfb      	ldrb	r3, [r7, #23]
}
 8001e68:	4618      	mov	r0, r3
 8001e6a:	3718      	adds	r7, #24
 8001e6c:	46bd      	mov	sp, r7
 8001e6e:	bd80      	pop	{r7, pc}

08001e70 <delay_us>:
#include "../../../Inc/COMMON/std_types.h"
/* Bit Math File */
#include "../../../Inc/COMMON/bit_math.h"


void delay_us(uint32_t microseconds) {
 8001e70:	b480      	push	{r7}
 8001e72:	b083      	sub	sp, #12
 8001e74:	af00      	add	r7, sp, #0
 8001e76:	6078      	str	r0, [r7, #4]
    // Assuming a 16MHz system clock
    microseconds = microseconds * 16;
 8001e78:	687b      	ldr	r3, [r7, #4]
 8001e7a:	011b      	lsls	r3, r3, #4
 8001e7c:	607b      	str	r3, [r7, #4]
    while (microseconds--) {
 8001e7e:	e000      	b.n	8001e82 <delay_us+0x12>
        __asm__("NOP");
 8001e80:	bf00      	nop
    while (microseconds--) {
 8001e82:	687b      	ldr	r3, [r7, #4]
 8001e84:	1e5a      	subs	r2, r3, #1
 8001e86:	607a      	str	r2, [r7, #4]
 8001e88:	2b00      	cmp	r3, #0
 8001e8a:	d1f9      	bne.n	8001e80 <delay_us+0x10>
    }
}
 8001e8c:	bf00      	nop
 8001e8e:	bf00      	nop
 8001e90:	370c      	adds	r7, #12
 8001e92:	46bd      	mov	sp, r7
 8001e94:	f85d 7b04 	ldr.w	r7, [sp], #4
 8001e98:	4770      	bx	lr
	...

08001e9c <UltraSonic_Init>:




void UltraSonic_Init(void)
{
 8001e9c:	b580      	push	{r7, lr}
 8001e9e:	b086      	sub	sp, #24
 8001ea0:	af00      	add	r7, sp, #0
    /*Configure Trig pin as output*/

	ST_MGPIO_pinCfg_t trig = {TRIG_PORT,TRIG_PIN,MGPIO_MODE_OUTPUT,
 8001ea2:	4a0c      	ldr	r2, [pc, #48]	; (8001ed4 <UltraSonic_Init+0x38>)
 8001ea4:	f107 030c 	add.w	r3, r7, #12
 8001ea8:	ca07      	ldmia	r2, {r0, r1, r2}
 8001eaa:	e883 0007 	stmia.w	r3, {r0, r1, r2}
			MGPIO_OUTPUT_RESISTOR_PUSH_PULL , MGPIO_OUTPUT_SPEED_MEDIUM ,MGPIO_LOGIC_LOW,
			MGPIO_PULL_FLOATING};
	MGPIO_uddtInitPin(&trig);
 8001eae:	f107 030c 	add.w	r3, r7, #12
 8001eb2:	4618      	mov	r0, r3
 8001eb4:	f000 fa4a 	bl	800234c <MGPIO_uddtInitPin>


    /*Configure echo pin as input*/

	ST_MGPIO_pinCfg_t echo = {ECHO_PORT,ECHO_PIN,MGPIO_MODE_INPUT,
 8001eb8:	4a07      	ldr	r2, [pc, #28]	; (8001ed8 <UltraSonic_Init+0x3c>)
 8001eba:	463b      	mov	r3, r7
 8001ebc:	ca07      	ldmia	r2, {r0, r1, r2}
 8001ebe:	e883 0007 	stmia.w	r3, {r0, r1, r2}
			MGPIO_OUTPUT_RESISTOR_PUSH_PULL , MGPIO_OUTPUT_SPEED_MEDIUM ,MGPIO_LOGIC_HIGH,
			MGPIO_PULL_PULL_DOWN};
	MGPIO_uddtInitPin(&echo);
 8001ec2:	463b      	mov	r3, r7
 8001ec4:	4618      	mov	r0, r3
 8001ec6:	f000 fa41 	bl	800234c <MGPIO_uddtInitPin>

}
 8001eca:	bf00      	nop
 8001ecc:	3718      	adds	r7, #24
 8001ece:	46bd      	mov	sp, r7
 8001ed0:	bd80      	pop	{r7, pc}
 8001ed2:	bf00      	nop
 8001ed4:	08003860 	.word	0x08003860
 8001ed8:	0800386c 	.word	0x0800386c

08001edc <UltraSonic_Send_Pulse>:

void UltraSonic_Send_Pulse(void) {
 8001edc:	b580      	push	{r7, lr}
 8001ede:	af00      	add	r7, sp, #0

    // Set trigger pin high for 10 microseconds to generate a pulse
	MGPIO_uddtSetPinVal(TRIG_PORT, TRIG_PIN, MGPIO_LOGIC_HIGH);
 8001ee0:	2201      	movs	r2, #1
 8001ee2:	2109      	movs	r1, #9
 8001ee4:	4806      	ldr	r0, [pc, #24]	; (8001f00 <UltraSonic_Send_Pulse+0x24>)
 8001ee6:	f000 f9c0 	bl	800226a <MGPIO_uddtSetPinVal>
	delay_us(10);
 8001eea:	200a      	movs	r0, #10
 8001eec:	f7ff ffc0 	bl	8001e70 <delay_us>
	MGPIO_uddtSetPinVal(TRIG_PORT, TRIG_PIN, MGPIO_LOGIC_LOW);
 8001ef0:	2200      	movs	r2, #0
 8001ef2:	2109      	movs	r1, #9
 8001ef4:	4802      	ldr	r0, [pc, #8]	; (8001f00 <UltraSonic_Send_Pulse+0x24>)
 8001ef6:	f000 f9b8 	bl	800226a <MGPIO_uddtSetPinVal>
}
 8001efa:	bf00      	nop
 8001efc:	bd80      	pop	{r7, pc}
 8001efe:	bf00      	nop
 8001f00:	40020000 	.word	0x40020000
 8001f04:	00000000 	.word	0x00000000

08001f08 <UltraSonic_Measure_Distance>:

uint32_t UltraSonic_Measure_Distance(void){
 8001f08:	b580      	push	{r7, lr}
 8001f0a:	b084      	sub	sp, #16
 8001f0c:	af00      	add	r7, sp, #0
    // Wait for the echo pin to go high
	EN_MGPIO_pinLogicOptions_t Copy_pu8Data = MGPIO_LOGIC_LOW;
 8001f0e:	2300      	movs	r3, #0
 8001f10:	73fb      	strb	r3, [r7, #15]
	while(Copy_pu8Data==0)
 8001f12:	e006      	b.n	8001f22 <UltraSonic_Measure_Distance+0x1a>
	{
		MGPIO_uddtGetPinVal(ECHO_PORT, ECHO_PIN, &Copy_pu8Data);
 8001f14:	f107 030f 	add.w	r3, r7, #15
 8001f18:	461a      	mov	r2, r3
 8001f1a:	210a      	movs	r1, #10
 8001f1c:	4820      	ldr	r0, [pc, #128]	; (8001fa0 <UltraSonic_Measure_Distance+0x98>)
 8001f1e:	f000 f97b 	bl	8002218 <MGPIO_uddtGetPinVal>
	while(Copy_pu8Data==0)
 8001f22:	7bfb      	ldrb	r3, [r7, #15]
 8001f24:	2b00      	cmp	r3, #0
 8001f26:	d0f5      	beq.n	8001f14 <UltraSonic_Measure_Distance+0xc>
	}

    // Start timer
    volatile uint32_t start_time = 0;
 8001f28:	2300      	movs	r3, #0
 8001f2a:	60bb      	str	r3, [r7, #8]
    while(Copy_pu8Data==1){
 8001f2c:	e00c      	b.n	8001f48 <UltraSonic_Measure_Distance+0x40>
        start_time++;
 8001f2e:	68bb      	ldr	r3, [r7, #8]
 8001f30:	3301      	adds	r3, #1
 8001f32:	60bb      	str	r3, [r7, #8]
        delay_us(1);
 8001f34:	2001      	movs	r0, #1
 8001f36:	f7ff ff9b 	bl	8001e70 <delay_us>
        MGPIO_uddtGetPinVal(ECHO_PORT,ECHO_PIN,&Copy_pu8Data);
 8001f3a:	f107 030f 	add.w	r3, r7, #15
 8001f3e:	461a      	mov	r2, r3
 8001f40:	210a      	movs	r1, #10
 8001f42:	4817      	ldr	r0, [pc, #92]	; (8001fa0 <UltraSonic_Measure_Distance+0x98>)
 8001f44:	f000 f968 	bl	8002218 <MGPIO_uddtGetPinVal>
    while(Copy_pu8Data==1){
 8001f48:	7bfb      	ldrb	r3, [r7, #15]
 8001f4a:	2b01      	cmp	r3, #1
 8001f4c:	d0ef      	beq.n	8001f2e <UltraSonic_Measure_Distance+0x26>
    }
    // Calculate distance in centimeters
    volatile uint32_t distance = (start_time * 0.0343 * 10.7);
 8001f4e:	68bb      	ldr	r3, [r7, #8]
 8001f50:	4618      	mov	r0, r3
 8001f52:	f7fe fa83 	bl	800045c <__aeabi_ui2d>
 8001f56:	a30e      	add	r3, pc, #56	; (adr r3, 8001f90 <UltraSonic_Measure_Distance+0x88>)
 8001f58:	e9d3 2300 	ldrd	r2, r3, [r3]
 8001f5c:	f7fe faf8 	bl	8000550 <__aeabi_dmul>
 8001f60:	4602      	mov	r2, r0
 8001f62:	460b      	mov	r3, r1
 8001f64:	4610      	mov	r0, r2
 8001f66:	4619      	mov	r1, r3
 8001f68:	a30b      	add	r3, pc, #44	; (adr r3, 8001f98 <UltraSonic_Measure_Distance+0x90>)
 8001f6a:	e9d3 2300 	ldrd	r2, r3, [r3]
 8001f6e:	f7fe faef 	bl	8000550 <__aeabi_dmul>
 8001f72:	4602      	mov	r2, r0
 8001f74:	460b      	mov	r3, r1
 8001f76:	4610      	mov	r0, r2
 8001f78:	4619      	mov	r1, r3
 8001f7a:	f7fe fcfb 	bl	8000974 <__aeabi_d2uiz>
 8001f7e:	4603      	mov	r3, r0
 8001f80:	607b      	str	r3, [r7, #4]
    return distance;
 8001f82:	687b      	ldr	r3, [r7, #4]



}
 8001f84:	4618      	mov	r0, r3
 8001f86:	3710      	adds	r7, #16
 8001f88:	46bd      	mov	sp, r7
 8001f8a:	bd80      	pop	{r7, pc}
 8001f8c:	f3af 8000 	nop.w
 8001f90:	04816f00 	.word	0x04816f00
 8001f94:	3fa18fc5 	.word	0x3fa18fc5
 8001f98:	66666666 	.word	0x66666666
 8001f9c:	40256666 	.word	0x40256666
 8001fa0:	40020000 	.word	0x40020000

08001fa4 <MEXTI_enableEXTI>:

static void(*arrOfPtrOfExtiCallBack[22])(void);


EN_MEXTI_systemState_t MEXTI_enableEXTI (EN_MEXTI_lines_t copy_uddtLineNum)
{
 8001fa4:	b480      	push	{r7}
 8001fa6:	b085      	sub	sp, #20
 8001fa8:	af00      	add	r7, sp, #0
 8001faa:	4603      	mov	r3, r0
 8001fac:	71fb      	strb	r3, [r7, #7]
	EN_MEXTI_systemState_t ret = MEXTI_NOK;
 8001fae:	2301      	movs	r3, #1
 8001fb0:	73fb      	strb	r3, [r7, #15]

	if(copy_uddtLineNum >= MEXTI_LINE0 && copy_uddtLineNum <= MEXTI_LINE22)
 8001fb2:	79fb      	ldrb	r3, [r7, #7]
 8001fb4:	2b16      	cmp	r3, #22
 8001fb6:	d80c      	bhi.n	8001fd2 <MEXTI_enableEXTI+0x2e>
	{
		SET_BIT(MEXTI_PERIPHERAL->MEXTI_IMR , copy_uddtLineNum);
 8001fb8:	4b0a      	ldr	r3, [pc, #40]	; (8001fe4 <MEXTI_enableEXTI+0x40>)
 8001fba:	681b      	ldr	r3, [r3, #0]
 8001fbc:	79fa      	ldrb	r2, [r7, #7]
 8001fbe:	2101      	movs	r1, #1
 8001fc0:	fa01 f202 	lsl.w	r2, r1, r2
 8001fc4:	4611      	mov	r1, r2
 8001fc6:	4a07      	ldr	r2, [pc, #28]	; (8001fe4 <MEXTI_enableEXTI+0x40>)
 8001fc8:	430b      	orrs	r3, r1
 8001fca:	6013      	str	r3, [r2, #0]
		ret = MEXTI_OK;
 8001fcc:	2300      	movs	r3, #0
 8001fce:	73fb      	strb	r3, [r7, #15]
 8001fd0:	e001      	b.n	8001fd6 <MEXTI_enableEXTI+0x32>
	}
	else
	{
		ret = MEXTI_INVALID_PARAMTER;
 8001fd2:	2302      	movs	r3, #2
 8001fd4:	73fb      	strb	r3, [r7, #15]
	}

	return ret;
 8001fd6:	7bfb      	ldrb	r3, [r7, #15]
}
 8001fd8:	4618      	mov	r0, r3
 8001fda:	3714      	adds	r7, #20
 8001fdc:	46bd      	mov	sp, r7
 8001fde:	f85d 7b04 	ldr.w	r7, [sp], #4
 8001fe2:	4770      	bx	lr
 8001fe4:	40013c00 	.word	0x40013c00

08001fe8 <MEXTI_disableEXTI>:

EN_MEXTI_systemState_t MEXTI_disableEXTI (EN_MEXTI_lines_t copy_uddtLineNum)
{
 8001fe8:	b480      	push	{r7}
 8001fea:	b085      	sub	sp, #20
 8001fec:	af00      	add	r7, sp, #0
 8001fee:	4603      	mov	r3, r0
 8001ff0:	71fb      	strb	r3, [r7, #7]
	EN_MEXTI_systemState_t ret = MEXTI_NOK;
 8001ff2:	2301      	movs	r3, #1
 8001ff4:	73fb      	strb	r3, [r7, #15]

	if(copy_uddtLineNum >= MEXTI_LINE0 && copy_uddtLineNum <= MEXTI_LINE22)
 8001ff6:	79fb      	ldrb	r3, [r7, #7]
 8001ff8:	2b16      	cmp	r3, #22
 8001ffa:	d80d      	bhi.n	8002018 <MEXTI_disableEXTI+0x30>
	{
		CLR_BIT(MEXTI_PERIPHERAL->MEXTI_IMR , copy_uddtLineNum);
 8001ffc:	4b0b      	ldr	r3, [pc, #44]	; (800202c <MEXTI_disableEXTI+0x44>)
 8001ffe:	681b      	ldr	r3, [r3, #0]
 8002000:	79fa      	ldrb	r2, [r7, #7]
 8002002:	2101      	movs	r1, #1
 8002004:	fa01 f202 	lsl.w	r2, r1, r2
 8002008:	43d2      	mvns	r2, r2
 800200a:	4611      	mov	r1, r2
 800200c:	4a07      	ldr	r2, [pc, #28]	; (800202c <MEXTI_disableEXTI+0x44>)
 800200e:	400b      	ands	r3, r1
 8002010:	6013      	str	r3, [r2, #0]
		ret = MEXTI_OK;
 8002012:	2300      	movs	r3, #0
 8002014:	73fb      	strb	r3, [r7, #15]
 8002016:	e001      	b.n	800201c <MEXTI_disableEXTI+0x34>
	}
	else
	{
		ret = MEXTI_INVALID_PARAMTER;
 8002018:	2302      	movs	r3, #2
 800201a:	73fb      	strb	r3, [r7, #15]
	}

	return ret;
 800201c:	7bfb      	ldrb	r3, [r7, #15]
}
 800201e:	4618      	mov	r0, r3
 8002020:	3714      	adds	r7, #20
 8002022:	46bd      	mov	sp, r7
 8002024:	f85d 7b04 	ldr.w	r7, [sp], #4
 8002028:	4770      	bx	lr
 800202a:	bf00      	nop
 800202c:	40013c00 	.word	0x40013c00

08002030 <MEXTI_setCallBack>:

	return ret;
}

EN_MEXTI_systemState_t MEXTI_setCallBack (void(*ptr)(void) , EN_MEXTI_lines_t copy_uddtLineNum)
{
 8002030:	b480      	push	{r7}
 8002032:	b085      	sub	sp, #20
 8002034:	af00      	add	r7, sp, #0
 8002036:	6078      	str	r0, [r7, #4]
 8002038:	460b      	mov	r3, r1
 800203a:	70fb      	strb	r3, [r7, #3]
	EN_MEXTI_systemState_t ret = MEXTI_NOK;
 800203c:	2301      	movs	r3, #1
 800203e:	73fb      	strb	r3, [r7, #15]

	if((copy_uddtLineNum >= MEXTI_LINE0 && copy_uddtLineNum <= MEXTI_LINE22)
 8002040:	78fb      	ldrb	r3, [r7, #3]
 8002042:	2b16      	cmp	r3, #22
 8002044:	d80a      	bhi.n	800205c <MEXTI_setCallBack+0x2c>
			&& (PTR_NULL != ptr))
 8002046:	687b      	ldr	r3, [r7, #4]
 8002048:	2b00      	cmp	r3, #0
 800204a:	d007      	beq.n	800205c <MEXTI_setCallBack+0x2c>
	{
		arrOfPtrOfExtiCallBack[copy_uddtLineNum] = ptr;
 800204c:	78fb      	ldrb	r3, [r7, #3]
 800204e:	4908      	ldr	r1, [pc, #32]	; (8002070 <MEXTI_setCallBack+0x40>)
 8002050:	687a      	ldr	r2, [r7, #4]
 8002052:	f841 2023 	str.w	r2, [r1, r3, lsl #2]
		ret = MEXTI_OK;
 8002056:	2300      	movs	r3, #0
 8002058:	73fb      	strb	r3, [r7, #15]
 800205a:	e001      	b.n	8002060 <MEXTI_setCallBack+0x30>
	}
	else
	{
		ret = MEXTI_INVALID_PARAMTER;
 800205c:	2302      	movs	r3, #2
 800205e:	73fb      	strb	r3, [r7, #15]
	}
	return ret;
 8002060:	7bfb      	ldrb	r3, [r7, #15]
}
 8002062:	4618      	mov	r0, r3
 8002064:	3714      	adds	r7, #20
 8002066:	46bd      	mov	sp, r7
 8002068:	f85d 7b04 	ldr.w	r7, [sp], #4
 800206c:	4770      	bx	lr
 800206e:	bf00      	nop
 8002070:	200000a8 	.word	0x200000a8

08002074 <EXTI0_IRQHandler>:


void EXTI0_IRQHandler(void)
{
 8002074:	b580      	push	{r7, lr}
 8002076:	af00      	add	r7, sp, #0
	if(PTR_NULL != arrOfPtrOfExtiCallBack[0])
 8002078:	4b07      	ldr	r3, [pc, #28]	; (8002098 <EXTI0_IRQHandler+0x24>)
 800207a:	681b      	ldr	r3, [r3, #0]
 800207c:	2b00      	cmp	r3, #0
 800207e:	d008      	beq.n	8002092 <EXTI0_IRQHandler+0x1e>
	{
		arrOfPtrOfExtiCallBack[0]();
 8002080:	4b05      	ldr	r3, [pc, #20]	; (8002098 <EXTI0_IRQHandler+0x24>)
 8002082:	681b      	ldr	r3, [r3, #0]
 8002084:	4798      	blx	r3
		SET_BIT(MEXTI_PERIPHERAL->MEXTI_PR,0);
 8002086:	4b05      	ldr	r3, [pc, #20]	; (800209c <EXTI0_IRQHandler+0x28>)
 8002088:	695b      	ldr	r3, [r3, #20]
 800208a:	4a04      	ldr	r2, [pc, #16]	; (800209c <EXTI0_IRQHandler+0x28>)
 800208c:	f043 0301 	orr.w	r3, r3, #1
 8002090:	6153      	str	r3, [r2, #20]
	else
	{
		/* Do Nothing */
	}

}
 8002092:	bf00      	nop
 8002094:	bd80      	pop	{r7, pc}
 8002096:	bf00      	nop
 8002098:	200000a8 	.word	0x200000a8
 800209c:	40013c00 	.word	0x40013c00

080020a0 <EXTI4_IRQHandler>:

void EXTI4_IRQHandler(void)
{
 80020a0:	b580      	push	{r7, lr}
 80020a2:	af00      	add	r7, sp, #0
	if(PTR_NULL != arrOfPtrOfExtiCallBack[4])
 80020a4:	4b07      	ldr	r3, [pc, #28]	; (80020c4 <EXTI4_IRQHandler+0x24>)
 80020a6:	691b      	ldr	r3, [r3, #16]
 80020a8:	2b00      	cmp	r3, #0
 80020aa:	d008      	beq.n	80020be <EXTI4_IRQHandler+0x1e>
	{
		arrOfPtrOfExtiCallBack[4]();
 80020ac:	4b05      	ldr	r3, [pc, #20]	; (80020c4 <EXTI4_IRQHandler+0x24>)
 80020ae:	691b      	ldr	r3, [r3, #16]
 80020b0:	4798      	blx	r3
		SET_BIT(MEXTI_PERIPHERAL->MEXTI_PR,4);
 80020b2:	4b05      	ldr	r3, [pc, #20]	; (80020c8 <EXTI4_IRQHandler+0x28>)
 80020b4:	695b      	ldr	r3, [r3, #20]
 80020b6:	4a04      	ldr	r2, [pc, #16]	; (80020c8 <EXTI4_IRQHandler+0x28>)
 80020b8:	f043 0310 	orr.w	r3, r3, #16
 80020bc:	6153      	str	r3, [r2, #20]
	else
	{
		/* Do Nothing */
	}

}
 80020be:	bf00      	nop
 80020c0:	bd80      	pop	{r7, pc}
 80020c2:	bf00      	nop
 80020c4:	200000a8 	.word	0x200000a8
 80020c8:	40013c00 	.word	0x40013c00

080020cc <MGPIO_uddtSetPinMode>:

#include "../../../Inc/MCAL/gpio/gpio_interface.h"


EN_MGPIO_systemState_t MGPIO_uddtSetPinMode (ST_MGPIOx_RegistersMap_t  *PS_GPIOx , EN_MGPIO_pinOptions_t copy_uddtPinNum , EN_MGPIO_pinModeOptions_t copy_uddtPinMode)
{
 80020cc:	b480      	push	{r7}
 80020ce:	b085      	sub	sp, #20
 80020d0:	af00      	add	r7, sp, #0
 80020d2:	6078      	str	r0, [r7, #4]
 80020d4:	460b      	mov	r3, r1
 80020d6:	70fb      	strb	r3, [r7, #3]
 80020d8:	4613      	mov	r3, r2
 80020da:	70bb      	strb	r3, [r7, #2]
	EN_MGPIO_systemState_t ret = MGPIO_NOK;
 80020dc:	2300      	movs	r3, #0
 80020de:	73fb      	strb	r3, [r7, #15]

	if((PS_GPIOx != PTR_NULL)
 80020e0:	687b      	ldr	r3, [r7, #4]
 80020e2:	2b00      	cmp	r3, #0
 80020e4:	d015      	beq.n	8002112 <MGPIO_uddtSetPinMode+0x46>
		&& (copy_uddtPinNum >= MGPIO_PIN0 && copy_uddtPinNum <= MGPIO_PIN15)
 80020e6:	78fb      	ldrb	r3, [r7, #3]
 80020e8:	2b0f      	cmp	r3, #15
 80020ea:	d812      	bhi.n	8002112 <MGPIO_uddtSetPinMode+0x46>
		&& (copy_uddtPinMode >= MGPIO_MODE_OUTPUT && copy_uddtPinMode <= MGPIO_MODE_ANALOG))
 80020ec:	78bb      	ldrb	r3, [r7, #2]
 80020ee:	2b00      	cmp	r3, #0
 80020f0:	d00f      	beq.n	8002112 <MGPIO_uddtSetPinMode+0x46>
 80020f2:	78bb      	ldrb	r3, [r7, #2]
 80020f4:	2b03      	cmp	r3, #3
 80020f6:	d80c      	bhi.n	8002112 <MGPIO_uddtSetPinMode+0x46>
	{
		PS_GPIOx->MGPIOx_MODER |= (uint32_t) (copy_uddtPinMode <<((2U) * copy_uddtPinNum));
 80020f8:	687b      	ldr	r3, [r7, #4]
 80020fa:	681b      	ldr	r3, [r3, #0]
 80020fc:	78b9      	ldrb	r1, [r7, #2]
 80020fe:	78fa      	ldrb	r2, [r7, #3]
 8002100:	0052      	lsls	r2, r2, #1
 8002102:	fa01 f202 	lsl.w	r2, r1, r2
 8002106:	431a      	orrs	r2, r3
 8002108:	687b      	ldr	r3, [r7, #4]
 800210a:	601a      	str	r2, [r3, #0]
		ret = MGPIO_OK;
 800210c:	2301      	movs	r3, #1
 800210e:	73fb      	strb	r3, [r7, #15]
 8002110:	e001      	b.n	8002116 <MGPIO_uddtSetPinMode+0x4a>
	}
	else
	{
		ret = MGPIO_INVALID_PARAMTER;
 8002112:	2302      	movs	r3, #2
 8002114:	73fb      	strb	r3, [r7, #15]
	}
	return ret;
 8002116:	7bfb      	ldrb	r3, [r7, #15]
}
 8002118:	4618      	mov	r0, r3
 800211a:	3714      	adds	r7, #20
 800211c:	46bd      	mov	sp, r7
 800211e:	f85d 7b04 	ldr.w	r7, [sp], #4
 8002122:	4770      	bx	lr

08002124 <MGPIO_uddtSetOutputMode>:


EN_MGPIO_systemState_t MGPIO_uddtSetOutputMode (ST_MGPIOx_RegistersMap_t *PS_GPIOx , EN_MGPIO_pinOptions_t copy_uddtPinNum , EN_MGPIO_outputResistorOptions_t copy_uddtOutputResistor)
{
 8002124:	b480      	push	{r7}
 8002126:	b085      	sub	sp, #20
 8002128:	af00      	add	r7, sp, #0
 800212a:	6078      	str	r0, [r7, #4]
 800212c:	460b      	mov	r3, r1
 800212e:	70fb      	strb	r3, [r7, #3]
 8002130:	4613      	mov	r3, r2
 8002132:	70bb      	strb	r3, [r7, #2]
	EN_MGPIO_systemState_t ret = MGPIO_NOK;
 8002134:	2300      	movs	r3, #0
 8002136:	73fb      	strb	r3, [r7, #15]

	if((PS_GPIOx != PTR_NULL)
 8002138:	687b      	ldr	r3, [r7, #4]
 800213a:	2b00      	cmp	r3, #0
 800213c:	d011      	beq.n	8002162 <MGPIO_uddtSetOutputMode+0x3e>
		&& (copy_uddtPinNum >= MGPIO_PIN0 && copy_uddtPinNum <= MGPIO_PIN15)
 800213e:	78fb      	ldrb	r3, [r7, #3]
 8002140:	2b0f      	cmp	r3, #15
 8002142:	d80e      	bhi.n	8002162 <MGPIO_uddtSetOutputMode+0x3e>
		&& (copy_uddtOutputResistor >= MGPIO_OUTPUT_RESISTOR_PUSH_PULL && copy_uddtOutputResistor <= MGPIO_OUTPUT_RESISTOR_OPEN_DRAIN))
 8002144:	78bb      	ldrb	r3, [r7, #2]
 8002146:	2b01      	cmp	r3, #1
 8002148:	d80b      	bhi.n	8002162 <MGPIO_uddtSetOutputMode+0x3e>
	{
		PS_GPIOx->MGPIOx_OTYPER |= (uint32_t) (copy_uddtOutputResistor << copy_uddtPinNum);
 800214a:	687b      	ldr	r3, [r7, #4]
 800214c:	685b      	ldr	r3, [r3, #4]
 800214e:	78b9      	ldrb	r1, [r7, #2]
 8002150:	78fa      	ldrb	r2, [r7, #3]
 8002152:	fa01 f202 	lsl.w	r2, r1, r2
 8002156:	431a      	orrs	r2, r3
 8002158:	687b      	ldr	r3, [r7, #4]
 800215a:	605a      	str	r2, [r3, #4]
		ret = MGPIO_OK;
 800215c:	2301      	movs	r3, #1
 800215e:	73fb      	strb	r3, [r7, #15]
 8002160:	e001      	b.n	8002166 <MGPIO_uddtSetOutputMode+0x42>
	}
	else
	{
		ret = MGPIO_INVALID_PARAMTER;
 8002162:	2302      	movs	r3, #2
 8002164:	73fb      	strb	r3, [r7, #15]
	}
	return ret;
 8002166:	7bfb      	ldrb	r3, [r7, #15]
}
 8002168:	4618      	mov	r0, r3
 800216a:	3714      	adds	r7, #20
 800216c:	46bd      	mov	sp, r7
 800216e:	f85d 7b04 	ldr.w	r7, [sp], #4
 8002172:	4770      	bx	lr

08002174 <MGPIO_uddtSetOutputSpeed>:


EN_MGPIO_systemState_t MGPIO_uddtSetOutputSpeed  (ST_MGPIOx_RegistersMap_t *PS_GPIOx , EN_MGPIO_pinOptions_t copy_uddtPinNum , EN_MGPIO_outputSpeedOptions_t copy_uddtOutputSpeed )
{
 8002174:	b480      	push	{r7}
 8002176:	b085      	sub	sp, #20
 8002178:	af00      	add	r7, sp, #0
 800217a:	6078      	str	r0, [r7, #4]
 800217c:	460b      	mov	r3, r1
 800217e:	70fb      	strb	r3, [r7, #3]
 8002180:	4613      	mov	r3, r2
 8002182:	70bb      	strb	r3, [r7, #2]
	EN_MGPIO_systemState_t ret = MGPIO_NOK;
 8002184:	2300      	movs	r3, #0
 8002186:	73fb      	strb	r3, [r7, #15]

	if((PS_GPIOx != PTR_NULL)
 8002188:	687b      	ldr	r3, [r7, #4]
 800218a:	2b00      	cmp	r3, #0
 800218c:	d012      	beq.n	80021b4 <MGPIO_uddtSetOutputSpeed+0x40>
		&& (copy_uddtPinNum >= MGPIO_PIN0 && copy_uddtPinNum <= MGPIO_PIN15)
 800218e:	78fb      	ldrb	r3, [r7, #3]
 8002190:	2b0f      	cmp	r3, #15
 8002192:	d80f      	bhi.n	80021b4 <MGPIO_uddtSetOutputSpeed+0x40>
		&& (copy_uddtOutputSpeed >= MGPIO_OUTPUT_SPEED_LOW && copy_uddtOutputSpeed <= MGPIO_OUTPUT_SPEED_VERY_HIGH))
 8002194:	78bb      	ldrb	r3, [r7, #2]
 8002196:	2b03      	cmp	r3, #3
 8002198:	d80c      	bhi.n	80021b4 <MGPIO_uddtSetOutputSpeed+0x40>
	{
		PS_GPIOx->MGPIOx_OSPEEDR |= (uint32_t) (copy_uddtOutputSpeed << ((2U) * copy_uddtPinNum));
 800219a:	687b      	ldr	r3, [r7, #4]
 800219c:	689b      	ldr	r3, [r3, #8]
 800219e:	78b9      	ldrb	r1, [r7, #2]
 80021a0:	78fa      	ldrb	r2, [r7, #3]
 80021a2:	0052      	lsls	r2, r2, #1
 80021a4:	fa01 f202 	lsl.w	r2, r1, r2
 80021a8:	431a      	orrs	r2, r3
 80021aa:	687b      	ldr	r3, [r7, #4]
 80021ac:	609a      	str	r2, [r3, #8]
		ret = MGPIO_OK;
 80021ae:	2301      	movs	r3, #1
 80021b0:	73fb      	strb	r3, [r7, #15]
 80021b2:	e001      	b.n	80021b8 <MGPIO_uddtSetOutputSpeed+0x44>
	}
	else
	{
		ret = MGPIO_INVALID_PARAMTER;
 80021b4:	2302      	movs	r3, #2
 80021b6:	73fb      	strb	r3, [r7, #15]
	}
	return ret;
 80021b8:	7bfb      	ldrb	r3, [r7, #15]
}
 80021ba:	4618      	mov	r0, r3
 80021bc:	3714      	adds	r7, #20
 80021be:	46bd      	mov	sp, r7
 80021c0:	f85d 7b04 	ldr.w	r7, [sp], #4
 80021c4:	4770      	bx	lr

080021c6 <MGPIO_uddtSetPullState>:


EN_MGPIO_systemState_t MGPIO_uddtSetPullState  (ST_MGPIOx_RegistersMap_t *PS_GPIOx , EN_MGPIO_pinOptions_t copy_uddtPinNum , EN_MGPIO_pushPullOptions_t copy_uddtPullState )
{
 80021c6:	b480      	push	{r7}
 80021c8:	b085      	sub	sp, #20
 80021ca:	af00      	add	r7, sp, #0
 80021cc:	6078      	str	r0, [r7, #4]
 80021ce:	460b      	mov	r3, r1
 80021d0:	70fb      	strb	r3, [r7, #3]
 80021d2:	4613      	mov	r3, r2
 80021d4:	70bb      	strb	r3, [r7, #2]
	EN_MGPIO_systemState_t ret = MGPIO_NOK;
 80021d6:	2300      	movs	r3, #0
 80021d8:	73fb      	strb	r3, [r7, #15]

	if((PS_GPIOx != PTR_NULL)
 80021da:	687b      	ldr	r3, [r7, #4]
 80021dc:	2b00      	cmp	r3, #0
 80021de:	d012      	beq.n	8002206 <MGPIO_uddtSetPullState+0x40>
		&& (copy_uddtPinNum >= MGPIO_PIN0 && copy_uddtPinNum <= MGPIO_PIN15)
 80021e0:	78fb      	ldrb	r3, [r7, #3]
 80021e2:	2b0f      	cmp	r3, #15
 80021e4:	d80f      	bhi.n	8002206 <MGPIO_uddtSetPullState+0x40>
		&& (copy_uddtPullState >= MGPIO_PULL_FLOATING && copy_uddtPullState <= MGPIO_PULL_PULL_DOWN))
 80021e6:	78bb      	ldrb	r3, [r7, #2]
 80021e8:	2b02      	cmp	r3, #2
 80021ea:	d80c      	bhi.n	8002206 <MGPIO_uddtSetPullState+0x40>
	{
		PS_GPIOx->MGPIOx_PUPDR |= (uint32_t) (copy_uddtPullState << ((2U) * copy_uddtPinNum));
 80021ec:	687b      	ldr	r3, [r7, #4]
 80021ee:	68db      	ldr	r3, [r3, #12]
 80021f0:	78b9      	ldrb	r1, [r7, #2]
 80021f2:	78fa      	ldrb	r2, [r7, #3]
 80021f4:	0052      	lsls	r2, r2, #1
 80021f6:	fa01 f202 	lsl.w	r2, r1, r2
 80021fa:	431a      	orrs	r2, r3
 80021fc:	687b      	ldr	r3, [r7, #4]
 80021fe:	60da      	str	r2, [r3, #12]
		ret = MGPIO_OK;
 8002200:	2301      	movs	r3, #1
 8002202:	73fb      	strb	r3, [r7, #15]
 8002204:	e001      	b.n	800220a <MGPIO_uddtSetPullState+0x44>
	}
	else
	{
		ret = MGPIO_INVALID_PARAMTER;
 8002206:	2302      	movs	r3, #2
 8002208:	73fb      	strb	r3, [r7, #15]
	}
	return ret;
 800220a:	7bfb      	ldrb	r3, [r7, #15]
}
 800220c:	4618      	mov	r0, r3
 800220e:	3714      	adds	r7, #20
 8002210:	46bd      	mov	sp, r7
 8002212:	f85d 7b04 	ldr.w	r7, [sp], #4
 8002216:	4770      	bx	lr

08002218 <MGPIO_uddtGetPinVal>:

EN_MGPIO_systemState_t MGPIO_uddtGetPinVal  (ST_MGPIOx_RegistersMap_t *PS_GPIOx , EN_MGPIO_pinOptions_t copy_uddtPinNum , EN_MGPIO_pinLogicOptions_t *copy_uddtPtrRetOfPinLogic)
{
 8002218:	b480      	push	{r7}
 800221a:	b087      	sub	sp, #28
 800221c:	af00      	add	r7, sp, #0
 800221e:	60f8      	str	r0, [r7, #12]
 8002220:	460b      	mov	r3, r1
 8002222:	607a      	str	r2, [r7, #4]
 8002224:	72fb      	strb	r3, [r7, #11]
	EN_MGPIO_systemState_t ret = MGPIO_NOK;
 8002226:	2300      	movs	r3, #0
 8002228:	75fb      	strb	r3, [r7, #23]

	if((PS_GPIOx != PTR_NULL)
 800222a:	68fb      	ldr	r3, [r7, #12]
 800222c:	2b00      	cmp	r3, #0
 800222e:	d013      	beq.n	8002258 <MGPIO_uddtGetPinVal+0x40>
		&& (copy_uddtPinNum >= MGPIO_PIN0 && copy_uddtPinNum <= MGPIO_PIN15)
 8002230:	7afb      	ldrb	r3, [r7, #11]
 8002232:	2b0f      	cmp	r3, #15
 8002234:	d810      	bhi.n	8002258 <MGPIO_uddtGetPinVal+0x40>
		&& (PTR_NULL != copy_uddtPtrRetOfPinLogic))
 8002236:	687b      	ldr	r3, [r7, #4]
 8002238:	2b00      	cmp	r3, #0
 800223a:	d00d      	beq.n	8002258 <MGPIO_uddtGetPinVal+0x40>
	{

		*copy_uddtPtrRetOfPinLogic = GET_BIT(PS_GPIOx->MGPIOx_IDR , copy_uddtPinNum);
 800223c:	68fb      	ldr	r3, [r7, #12]
 800223e:	691a      	ldr	r2, [r3, #16]
 8002240:	7afb      	ldrb	r3, [r7, #11]
 8002242:	fa22 f303 	lsr.w	r3, r2, r3
 8002246:	b2db      	uxtb	r3, r3
 8002248:	f003 0301 	and.w	r3, r3, #1
 800224c:	b2da      	uxtb	r2, r3
 800224e:	687b      	ldr	r3, [r7, #4]
 8002250:	701a      	strb	r2, [r3, #0]
		ret = MGPIO_OK;
 8002252:	2301      	movs	r3, #1
 8002254:	75fb      	strb	r3, [r7, #23]
 8002256:	e001      	b.n	800225c <MGPIO_uddtGetPinVal+0x44>
	}
	else
	{
		ret = MGPIO_INVALID_PARAMTER;
 8002258:	2302      	movs	r3, #2
 800225a:	75fb      	strb	r3, [r7, #23]
	}
	return ret;
 800225c:	7dfb      	ldrb	r3, [r7, #23]
}
 800225e:	4618      	mov	r0, r3
 8002260:	371c      	adds	r7, #28
 8002262:	46bd      	mov	sp, r7
 8002264:	f85d 7b04 	ldr.w	r7, [sp], #4
 8002268:	4770      	bx	lr

0800226a <MGPIO_uddtSetPinVal>:

EN_MGPIO_systemState_t MGPIO_uddtSetPinVal(ST_MGPIOx_RegistersMap_t *PS_GPIOx , EN_MGPIO_pinOptions_t copy_uddtPinNum , EN_MGPIO_pinLogicOptions_t copy_uddtPinLogic)
{
 800226a:	b480      	push	{r7}
 800226c:	b085      	sub	sp, #20
 800226e:	af00      	add	r7, sp, #0
 8002270:	6078      	str	r0, [r7, #4]
 8002272:	460b      	mov	r3, r1
 8002274:	70fb      	strb	r3, [r7, #3]
 8002276:	4613      	mov	r3, r2
 8002278:	70bb      	strb	r3, [r7, #2]
	EN_MGPIO_systemState_t ret = MGPIO_NOK;
 800227a:	2300      	movs	r3, #0
 800227c:	73fb      	strb	r3, [r7, #15]

	if((PS_GPIOx != PTR_NULL)
 800227e:	687b      	ldr	r3, [r7, #4]
 8002280:	2b00      	cmp	r3, #0
 8002282:	d027      	beq.n	80022d4 <MGPIO_uddtSetPinVal+0x6a>
		&& (copy_uddtPinNum >= MGPIO_PIN0 && copy_uddtPinNum <= MGPIO_PIN15)
 8002284:	78fb      	ldrb	r3, [r7, #3]
 8002286:	2b0f      	cmp	r3, #15
 8002288:	d824      	bhi.n	80022d4 <MGPIO_uddtSetPinVal+0x6a>
		&& (copy_uddtPinLogic >= MGPIO_LOGIC_LOW && copy_uddtPinLogic <= MGPIO_LOGIC_HIGH))
 800228a:	78bb      	ldrb	r3, [r7, #2]
 800228c:	2b01      	cmp	r3, #1
 800228e:	d821      	bhi.n	80022d4 <MGPIO_uddtSetPinVal+0x6a>
	{
		if(copy_uddtPinLogic == MGPIO_LOGIC_HIGH)
 8002290:	78bb      	ldrb	r3, [r7, #2]
 8002292:	2b01      	cmp	r3, #1
 8002294:	d10b      	bne.n	80022ae <MGPIO_uddtSetPinVal+0x44>
		{
			SET_BIT(PS_GPIOx->MGPIOx_ODR , copy_uddtPinNum);
 8002296:	687b      	ldr	r3, [r7, #4]
 8002298:	695b      	ldr	r3, [r3, #20]
 800229a:	78fa      	ldrb	r2, [r7, #3]
 800229c:	2101      	movs	r1, #1
 800229e:	fa01 f202 	lsl.w	r2, r1, r2
 80022a2:	431a      	orrs	r2, r3
 80022a4:	687b      	ldr	r3, [r7, #4]
 80022a6:	615a      	str	r2, [r3, #20]
			ret = MGPIO_OK;
 80022a8:	2301      	movs	r3, #1
 80022aa:	73fb      	strb	r3, [r7, #15]
		if(copy_uddtPinLogic == MGPIO_LOGIC_HIGH)
 80022ac:	e014      	b.n	80022d8 <MGPIO_uddtSetPinVal+0x6e>
		}
		else if(copy_uddtPinLogic == MGPIO_LOGIC_LOW)
 80022ae:	78bb      	ldrb	r3, [r7, #2]
 80022b0:	2b00      	cmp	r3, #0
 80022b2:	d10c      	bne.n	80022ce <MGPIO_uddtSetPinVal+0x64>
		{
			CLR_BIT(PS_GPIOx->MGPIOx_ODR , copy_uddtPinNum);
 80022b4:	687b      	ldr	r3, [r7, #4]
 80022b6:	695b      	ldr	r3, [r3, #20]
 80022b8:	78fa      	ldrb	r2, [r7, #3]
 80022ba:	2101      	movs	r1, #1
 80022bc:	fa01 f202 	lsl.w	r2, r1, r2
 80022c0:	43d2      	mvns	r2, r2
 80022c2:	401a      	ands	r2, r3
 80022c4:	687b      	ldr	r3, [r7, #4]
 80022c6:	615a      	str	r2, [r3, #20]
			ret = MGPIO_OK;
 80022c8:	2301      	movs	r3, #1
 80022ca:	73fb      	strb	r3, [r7, #15]
		if(copy_uddtPinLogic == MGPIO_LOGIC_HIGH)
 80022cc:	e004      	b.n	80022d8 <MGPIO_uddtSetPinVal+0x6e>
		}
		else
		{
			ret = MGPIO_INVALID_PARAMTER;
 80022ce:	2302      	movs	r3, #2
 80022d0:	73fb      	strb	r3, [r7, #15]
		if(copy_uddtPinLogic == MGPIO_LOGIC_HIGH)
 80022d2:	e001      	b.n	80022d8 <MGPIO_uddtSetPinVal+0x6e>
		}
	}
	else
	{
		ret = MGPIO_INVALID_PARAMTER;
 80022d4:	2302      	movs	r3, #2
 80022d6:	73fb      	strb	r3, [r7, #15]
	}
	return ret;
 80022d8:	7bfb      	ldrb	r3, [r7, #15]
}
 80022da:	4618      	mov	r0, r3
 80022dc:	3714      	adds	r7, #20
 80022de:	46bd      	mov	sp, r7
 80022e0:	f85d 7b04 	ldr.w	r7, [sp], #4
 80022e4:	4770      	bx	lr

080022e6 <MGPIO_uddtSetAltFun>:
	}
	return ret;
}

EN_MGPIO_systemState_t MGPIO_uddtSetAltFun (ST_MGPIOx_RegistersMap_t *PS_GPIOx , EN_MGPIO_pinOptions_t copy_uddtPinNum , EN_MGPIO_altfnOptions_t Copy_uddtAltFun)
{
 80022e6:	b480      	push	{r7}
 80022e8:	b085      	sub	sp, #20
 80022ea:	af00      	add	r7, sp, #0
 80022ec:	6078      	str	r0, [r7, #4]
 80022ee:	460b      	mov	r3, r1
 80022f0:	70fb      	strb	r3, [r7, #3]
 80022f2:	4613      	mov	r3, r2
 80022f4:	70bb      	strb	r3, [r7, #2]
	EN_MGPIO_systemState_t ret = MGPIO_NOK;
 80022f6:	2300      	movs	r3, #0
 80022f8:	73fb      	strb	r3, [r7, #15]
	if (copy_uddtPinNum <= 7U )
 80022fa:	78fb      	ldrb	r3, [r7, #3]
 80022fc:	2b07      	cmp	r3, #7
 80022fe:	d80c      	bhi.n	800231a <MGPIO_uddtSetAltFun+0x34>
	{
		PS_GPIOx->MGPIOx_AFRL  |= (Copy_uddtAltFun << 4U * (copy_uddtPinNum));
 8002300:	687b      	ldr	r3, [r7, #4]
 8002302:	6a1b      	ldr	r3, [r3, #32]
 8002304:	78b9      	ldrb	r1, [r7, #2]
 8002306:	78fa      	ldrb	r2, [r7, #3]
 8002308:	0092      	lsls	r2, r2, #2
 800230a:	fa01 f202 	lsl.w	r2, r1, r2
 800230e:	431a      	orrs	r2, r3
 8002310:	687b      	ldr	r3, [r7, #4]
 8002312:	621a      	str	r2, [r3, #32]
		ret= MGPIO_OK;
 8002314:	2301      	movs	r3, #1
 8002316:	73fb      	strb	r3, [r7, #15]
 8002318:	e011      	b.n	800233e <MGPIO_uddtSetAltFun+0x58>
	}
	else  if (copy_uddtPinNum <= 15U )
 800231a:	78fb      	ldrb	r3, [r7, #3]
 800231c:	2b0f      	cmp	r3, #15
 800231e:	d80c      	bhi.n	800233a <MGPIO_uddtSetAltFun+0x54>
	{
		PS_GPIOx->MGPIOx_AFRH  |= (Copy_uddtAltFun << 4U * (copy_uddtPinNum));
 8002320:	687b      	ldr	r3, [r7, #4]
 8002322:	6a5b      	ldr	r3, [r3, #36]	; 0x24
 8002324:	78b9      	ldrb	r1, [r7, #2]
 8002326:	78fa      	ldrb	r2, [r7, #3]
 8002328:	0092      	lsls	r2, r2, #2
 800232a:	fa01 f202 	lsl.w	r2, r1, r2
 800232e:	431a      	orrs	r2, r3
 8002330:	687b      	ldr	r3, [r7, #4]
 8002332:	625a      	str	r2, [r3, #36]	; 0x24
		ret= MGPIO_OK;
 8002334:	2301      	movs	r3, #1
 8002336:	73fb      	strb	r3, [r7, #15]
 8002338:	e001      	b.n	800233e <MGPIO_uddtSetAltFun+0x58>
	}
	else
	{
		ret= MGPIO_PTR_NULL;
 800233a:	2303      	movs	r3, #3
 800233c:	73fb      	strb	r3, [r7, #15]
	}
	return ret;
 800233e:	7bfb      	ldrb	r3, [r7, #15]
}
 8002340:	4618      	mov	r0, r3
 8002342:	3714      	adds	r7, #20
 8002344:	46bd      	mov	sp, r7
 8002346:	f85d 7b04 	ldr.w	r7, [sp], #4
 800234a:	4770      	bx	lr

0800234c <MGPIO_uddtInitPin>:



EN_MGPIO_systemState_t MGPIO_uddtInitPin		(ST_MGPIO_pinCfg_t *PS_pinInstance)
{
 800234c:	b580      	push	{r7, lr}
 800234e:	b084      	sub	sp, #16
 8002350:	af00      	add	r7, sp, #0
 8002352:	6078      	str	r0, [r7, #4]
	EN_MGPIO_systemState_t ret = MGPIO_NOK;
 8002354:	2300      	movs	r3, #0
 8002356:	73fb      	strb	r3, [r7, #15]
	if(PS_pinInstance != PTR_NULL)
 8002358:	687b      	ldr	r3, [r7, #4]
 800235a:	2b00      	cmp	r3, #0
 800235c:	d043      	beq.n	80023e6 <MGPIO_uddtInitPin+0x9a>
	{
		ret = MGPIO_uddtSetPinMode(PS_pinInstance->PS_GPIOx,PS_pinInstance->copy_uddtPinNum,PS_pinInstance->copy_uddtPinMode);
 800235e:	687b      	ldr	r3, [r7, #4]
 8002360:	6818      	ldr	r0, [r3, #0]
 8002362:	687b      	ldr	r3, [r7, #4]
 8002364:	7919      	ldrb	r1, [r3, #4]
 8002366:	687b      	ldr	r3, [r7, #4]
 8002368:	795b      	ldrb	r3, [r3, #5]
 800236a:	461a      	mov	r2, r3
 800236c:	f7ff feae 	bl	80020cc <MGPIO_uddtSetPinMode>
 8002370:	4603      	mov	r3, r0
 8002372:	73fb      	strb	r3, [r7, #15]
		if(ret == MGPIO_OK)
 8002374:	7bfb      	ldrb	r3, [r7, #15]
 8002376:	2b01      	cmp	r3, #1
 8002378:	d10a      	bne.n	8002390 <MGPIO_uddtInitPin+0x44>
		ret = MGPIO_uddtSetOutputMode(PS_pinInstance->PS_GPIOx,PS_pinInstance->copy_uddtPinNum,PS_pinInstance->copy_uddtOutputResistor);
 800237a:	687b      	ldr	r3, [r7, #4]
 800237c:	6818      	ldr	r0, [r3, #0]
 800237e:	687b      	ldr	r3, [r7, #4]
 8002380:	7919      	ldrb	r1, [r3, #4]
 8002382:	687b      	ldr	r3, [r7, #4]
 8002384:	799b      	ldrb	r3, [r3, #6]
 8002386:	461a      	mov	r2, r3
 8002388:	f7ff fecc 	bl	8002124 <MGPIO_uddtSetOutputMode>
 800238c:	4603      	mov	r3, r0
 800238e:	73fb      	strb	r3, [r7, #15]
		if(ret == MGPIO_OK)
 8002390:	7bfb      	ldrb	r3, [r7, #15]
 8002392:	2b01      	cmp	r3, #1
 8002394:	d10a      	bne.n	80023ac <MGPIO_uddtInitPin+0x60>
		ret = MGPIO_uddtSetOutputSpeed(PS_pinInstance->PS_GPIOx,PS_pinInstance->copy_uddtPinNum,PS_pinInstance->copy_uddtOutputSpeed);
 8002396:	687b      	ldr	r3, [r7, #4]
 8002398:	6818      	ldr	r0, [r3, #0]
 800239a:	687b      	ldr	r3, [r7, #4]
 800239c:	7919      	ldrb	r1, [r3, #4]
 800239e:	687b      	ldr	r3, [r7, #4]
 80023a0:	79db      	ldrb	r3, [r3, #7]
 80023a2:	461a      	mov	r2, r3
 80023a4:	f7ff fee6 	bl	8002174 <MGPIO_uddtSetOutputSpeed>
 80023a8:	4603      	mov	r3, r0
 80023aa:	73fb      	strb	r3, [r7, #15]
		if(ret == MGPIO_OK)
 80023ac:	7bfb      	ldrb	r3, [r7, #15]
 80023ae:	2b01      	cmp	r3, #1
 80023b0:	d10a      	bne.n	80023c8 <MGPIO_uddtInitPin+0x7c>
		ret = MGPIO_uddtSetPullState(PS_pinInstance->PS_GPIOx,PS_pinInstance->copy_uddtPinNum,PS_pinInstance->copy_uddtPullState);
 80023b2:	687b      	ldr	r3, [r7, #4]
 80023b4:	6818      	ldr	r0, [r3, #0]
 80023b6:	687b      	ldr	r3, [r7, #4]
 80023b8:	7919      	ldrb	r1, [r3, #4]
 80023ba:	687b      	ldr	r3, [r7, #4]
 80023bc:	7a5b      	ldrb	r3, [r3, #9]
 80023be:	461a      	mov	r2, r3
 80023c0:	f7ff ff01 	bl	80021c6 <MGPIO_uddtSetPullState>
 80023c4:	4603      	mov	r3, r0
 80023c6:	73fb      	strb	r3, [r7, #15]
		if(ret == MGPIO_OK)
 80023c8:	7bfb      	ldrb	r3, [r7, #15]
 80023ca:	2b01      	cmp	r3, #1
 80023cc:	d10d      	bne.n	80023ea <MGPIO_uddtInitPin+0x9e>
		ret = MGPIO_uddtSetPinVal(PS_pinInstance->PS_GPIOx,PS_pinInstance->copy_uddtPinNum,PS_pinInstance->copy_uddtPtrRetOfPinLogic);
 80023ce:	687b      	ldr	r3, [r7, #4]
 80023d0:	6818      	ldr	r0, [r3, #0]
 80023d2:	687b      	ldr	r3, [r7, #4]
 80023d4:	7919      	ldrb	r1, [r3, #4]
 80023d6:	687b      	ldr	r3, [r7, #4]
 80023d8:	7a1b      	ldrb	r3, [r3, #8]
 80023da:	461a      	mov	r2, r3
 80023dc:	f7ff ff45 	bl	800226a <MGPIO_uddtSetPinVal>
 80023e0:	4603      	mov	r3, r0
 80023e2:	73fb      	strb	r3, [r7, #15]
 80023e4:	e001      	b.n	80023ea <MGPIO_uddtInitPin+0x9e>
	}
	else
	{
		ret = MGPIO_PTR_NULL;
 80023e6:	2303      	movs	r3, #3
 80023e8:	73fb      	strb	r3, [r7, #15]
	}
	return ret;
 80023ea:	7bfb      	ldrb	r3, [r7, #15]
}
 80023ec:	4618      	mov	r0, r3
 80023ee:	3710      	adds	r7, #16
 80023f0:	46bd      	mov	sp, r7
 80023f2:	bd80      	pop	{r7, pc}

080023f4 <MGPIO_uddtInitAltPin>:


EN_MGPIO_systemState_t MGPIO_uddtInitAltPin		(ST_MGPIO_altPinCfg_t *PS_altPinInstance)
{
 80023f4:	b580      	push	{r7, lr}
 80023f6:	b084      	sub	sp, #16
 80023f8:	af00      	add	r7, sp, #0
 80023fa:	6078      	str	r0, [r7, #4]
	EN_MGPIO_systemState_t ret = MGPIO_NOK;
 80023fc:	2300      	movs	r3, #0
 80023fe:	73fb      	strb	r3, [r7, #15]

	if(PS_altPinInstance != PTR_NULL)
 8002400:	687b      	ldr	r3, [r7, #4]
 8002402:	2b00      	cmp	r3, #0
 8002404:	d042      	beq.n	800248c <MGPIO_uddtInitAltPin+0x98>
	{
		ret = MGPIO_uddtSetPinMode(PS_altPinInstance->PS_GPIOx,PS_altPinInstance->copy_uddtPinNum,MGPIO_MODE_ALTF);
 8002406:	687b      	ldr	r3, [r7, #4]
 8002408:	6818      	ldr	r0, [r3, #0]
 800240a:	687b      	ldr	r3, [r7, #4]
 800240c:	791b      	ldrb	r3, [r3, #4]
 800240e:	2202      	movs	r2, #2
 8002410:	4619      	mov	r1, r3
 8002412:	f7ff fe5b 	bl	80020cc <MGPIO_uddtSetPinMode>
 8002416:	4603      	mov	r3, r0
 8002418:	73fb      	strb	r3, [r7, #15]
		if(ret == MGPIO_OK)
 800241a:	7bfb      	ldrb	r3, [r7, #15]
 800241c:	2b01      	cmp	r3, #1
 800241e:	d10a      	bne.n	8002436 <MGPIO_uddtInitAltPin+0x42>
		ret = MGPIO_uddtSetOutputMode(PS_altPinInstance->PS_GPIOx,PS_altPinInstance->copy_uddtPinNum,PS_altPinInstance->copy_uddtOutputResistor);
 8002420:	687b      	ldr	r3, [r7, #4]
 8002422:	6818      	ldr	r0, [r3, #0]
 8002424:	687b      	ldr	r3, [r7, #4]
 8002426:	7919      	ldrb	r1, [r3, #4]
 8002428:	687b      	ldr	r3, [r7, #4]
 800242a:	799b      	ldrb	r3, [r3, #6]
 800242c:	461a      	mov	r2, r3
 800242e:	f7ff fe79 	bl	8002124 <MGPIO_uddtSetOutputMode>
 8002432:	4603      	mov	r3, r0
 8002434:	73fb      	strb	r3, [r7, #15]
		if(ret == MGPIO_OK)
 8002436:	7bfb      	ldrb	r3, [r7, #15]
 8002438:	2b01      	cmp	r3, #1
 800243a:	d10a      	bne.n	8002452 <MGPIO_uddtInitAltPin+0x5e>
		ret = MGPIO_uddtSetOutputSpeed(PS_altPinInstance->PS_GPIOx,PS_altPinInstance->copy_uddtPinNum,PS_altPinInstance->copy_uddtOutputSpeed);
 800243c:	687b      	ldr	r3, [r7, #4]
 800243e:	6818      	ldr	r0, [r3, #0]
 8002440:	687b      	ldr	r3, [r7, #4]
 8002442:	7919      	ldrb	r1, [r3, #4]
 8002444:	687b      	ldr	r3, [r7, #4]
 8002446:	79db      	ldrb	r3, [r3, #7]
 8002448:	461a      	mov	r2, r3
 800244a:	f7ff fe93 	bl	8002174 <MGPIO_uddtSetOutputSpeed>
 800244e:	4603      	mov	r3, r0
 8002450:	73fb      	strb	r3, [r7, #15]
		if(ret == MGPIO_OK)
 8002452:	7bfb      	ldrb	r3, [r7, #15]
 8002454:	2b01      	cmp	r3, #1
 8002456:	d10a      	bne.n	800246e <MGPIO_uddtInitAltPin+0x7a>
		ret = MGPIO_uddtSetAltFun(PS_altPinInstance->PS_GPIOx,PS_altPinInstance->copy_uddtPinNum,PS_altPinInstance->Copy_uddtAltFun);
 8002458:	687b      	ldr	r3, [r7, #4]
 800245a:	6818      	ldr	r0, [r3, #0]
 800245c:	687b      	ldr	r3, [r7, #4]
 800245e:	7919      	ldrb	r1, [r3, #4]
 8002460:	687b      	ldr	r3, [r7, #4]
 8002462:	795b      	ldrb	r3, [r3, #5]
 8002464:	461a      	mov	r2, r3
 8002466:	f7ff ff3e 	bl	80022e6 <MGPIO_uddtSetAltFun>
 800246a:	4603      	mov	r3, r0
 800246c:	73fb      	strb	r3, [r7, #15]
		if(ret == MGPIO_OK)
 800246e:	7bfb      	ldrb	r3, [r7, #15]
 8002470:	2b01      	cmp	r3, #1
 8002472:	d10d      	bne.n	8002490 <MGPIO_uddtInitAltPin+0x9c>
		ret = MGPIO_uddtSetPullState(PS_altPinInstance->PS_GPIOx,PS_altPinInstance->copy_uddtPinNum,PS_altPinInstance->copy_uddtPullState);
 8002474:	687b      	ldr	r3, [r7, #4]
 8002476:	6818      	ldr	r0, [r3, #0]
 8002478:	687b      	ldr	r3, [r7, #4]
 800247a:	7919      	ldrb	r1, [r3, #4]
 800247c:	687b      	ldr	r3, [r7, #4]
 800247e:	7a1b      	ldrb	r3, [r3, #8]
 8002480:	461a      	mov	r2, r3
 8002482:	f7ff fea0 	bl	80021c6 <MGPIO_uddtSetPullState>
 8002486:	4603      	mov	r3, r0
 8002488:	73fb      	strb	r3, [r7, #15]
 800248a:	e001      	b.n	8002490 <MGPIO_uddtInitAltPin+0x9c>

	}
	else
	{
		ret = MGPIO_PTR_NULL;
 800248c:	2303      	movs	r3, #3
 800248e:	73fb      	strb	r3, [r7, #15]
	}
	return ret;
 8002490:	7bfb      	ldrb	r3, [r7, #15]
}
 8002492:	4618      	mov	r0, r3
 8002494:	3710      	adds	r7, #16
 8002496:	46bd      	mov	sp, r7
 8002498:	bd80      	pop	{r7, pc}
	...

0800249c <MNVIC_enableInterrupt>:
#include "../../../Inc/MCAL/nvic/nvic_interface.h"



EN_MNVIC_systemState_t MNVIC_enableInterrupt(uint8_t copy_u8IntPos)
{
 800249c:	b490      	push	{r4, r7}
 800249e:	b084      	sub	sp, #16
 80024a0:	af00      	add	r7, sp, #0
 80024a2:	4603      	mov	r3, r0
 80024a4:	71fb      	strb	r3, [r7, #7]
	EN_MNVIC_systemState_t ret = MNVIC_NOK;
 80024a6:	2301      	movs	r3, #1
 80024a8:	73fb      	strb	r3, [r7, #15]
	if(copy_u8IntPos >= POS_OF_FIRST_INT && copy_u8IntPos <= POS_OF_LAST_INT)
 80024aa:	79fb      	ldrb	r3, [r7, #7]
 80024ac:	2b54      	cmp	r3, #84	; 0x54
 80024ae:	d815      	bhi.n	80024dc <MNVIC_enableInterrupt+0x40>
	{
		SET_BIT(MNVIC_PERIPHERAL->MNVIC_ISERx[getIntRegNumber(copy_u8IntPos)] ,getIntBitNumber(copy_u8IntPos));
 80024b0:	4a0e      	ldr	r2, [pc, #56]	; (80024ec <MNVIC_enableInterrupt+0x50>)
 80024b2:	79fb      	ldrb	r3, [r7, #7]
 80024b4:	095b      	lsrs	r3, r3, #5
 80024b6:	b2d8      	uxtb	r0, r3
 80024b8:	4603      	mov	r3, r0
 80024ba:	f852 3023 	ldr.w	r3, [r2, r3, lsl #2]
 80024be:	79fa      	ldrb	r2, [r7, #7]
 80024c0:	f002 021f 	and.w	r2, r2, #31
 80024c4:	2101      	movs	r1, #1
 80024c6:	fa01 f202 	lsl.w	r2, r1, r2
 80024ca:	4614      	mov	r4, r2
 80024cc:	4a07      	ldr	r2, [pc, #28]	; (80024ec <MNVIC_enableInterrupt+0x50>)
 80024ce:	4601      	mov	r1, r0
 80024d0:	4323      	orrs	r3, r4
 80024d2:	f842 3021 	str.w	r3, [r2, r1, lsl #2]
		ret = MNVIC_OK;
 80024d6:	2300      	movs	r3, #0
 80024d8:	73fb      	strb	r3, [r7, #15]
 80024da:	e001      	b.n	80024e0 <MNVIC_enableInterrupt+0x44>
	}
	else
	{
		ret = MNVIC_INVALID_PARAMTER;
 80024dc:	2302      	movs	r3, #2
 80024de:	73fb      	strb	r3, [r7, #15]
	}

	return ret;
 80024e0:	7bfb      	ldrb	r3, [r7, #15]
}
 80024e2:	4618      	mov	r0, r3
 80024e4:	3710      	adds	r7, #16
 80024e6:	46bd      	mov	sp, r7
 80024e8:	bc90      	pop	{r4, r7}
 80024ea:	4770      	bx	lr
 80024ec:	e000e100 	.word	0xe000e100

080024f0 <MNVIC_SetInterruptPriority>:

	return ret;
}

EN_MNVIC_systemState_t MNVIC_SetInterruptPriority (uint8_t copy_u8IntPos , EN_MNVIC_priorityGrouping_t copy_uddtGroupOption ,uint8_t copy_u8GroupPriority , uint8_t copy_u8SubPriority)
{
 80024f0:	b490      	push	{r4, r7}
 80024f2:	b084      	sub	sp, #16
 80024f4:	af00      	add	r7, sp, #0
 80024f6:	4604      	mov	r4, r0
 80024f8:	4608      	mov	r0, r1
 80024fa:	4611      	mov	r1, r2
 80024fc:	461a      	mov	r2, r3
 80024fe:	4623      	mov	r3, r4
 8002500:	71fb      	strb	r3, [r7, #7]
 8002502:	4603      	mov	r3, r0
 8002504:	71bb      	strb	r3, [r7, #6]
 8002506:	460b      	mov	r3, r1
 8002508:	717b      	strb	r3, [r7, #5]
 800250a:	4613      	mov	r3, r2
 800250c:	713b      	strb	r3, [r7, #4]
	EN_MNVIC_systemState_t ret = MNVIC_NOK;
 800250e:	2301      	movs	r3, #1
 8002510:	73fb      	strb	r3, [r7, #15]
	if((copy_u8IntPos >= POS_OF_FIRST_INT && copy_u8IntPos <= POS_OF_LAST_INT)
 8002512:	79fb      	ldrb	r3, [r7, #7]
 8002514:	2b54      	cmp	r3, #84	; 0x54
 8002516:	d841      	bhi.n	800259c <MNVIC_SetInterruptPriority+0xac>
		&&(copy_uddtGroupOption >= GP_16_SP_00 && copy_uddtGroupOption <= GP_00_SP_16 ))
 8002518:	79bb      	ldrb	r3, [r7, #6]
 800251a:	2b04      	cmp	r3, #4
 800251c:	d83e      	bhi.n	800259c <MNVIC_SetInterruptPriority+0xac>
	{
		uint8_t Local_u8Priority = 0;
 800251e:	2300      	movs	r3, #0
 8002520:	73bb      	strb	r3, [r7, #14]

		  switch(copy_uddtGroupOption)
 8002522:	79bb      	ldrb	r3, [r7, #6]
 8002524:	2b04      	cmp	r3, #4
 8002526:	d82e      	bhi.n	8002586 <MNVIC_SetInterruptPriority+0x96>
 8002528:	a201      	add	r2, pc, #4	; (adr r2, 8002530 <MNVIC_SetInterruptPriority+0x40>)
 800252a:	f852 f023 	ldr.w	pc, [r2, r3, lsl #2]
 800252e:	bf00      	nop
 8002530:	0800254b 	.word	0x0800254b
 8002534:	08002575 	.word	0x08002575
 8002538:	08002551 	.word	0x08002551
 800253c:	08002563 	.word	0x08002563
 8002540:	08002545 	.word	0x08002545
		  {
		  case GP_00_SP_16 :  Local_u8Priority = copy_u8SubPriority								   ;  break ;
 8002544:	793b      	ldrb	r3, [r7, #4]
 8002546:	73bb      	strb	r3, [r7, #14]
 8002548:	e01d      	b.n	8002586 <MNVIC_SetInterruptPriority+0x96>
		  case GP_16_SP_00 :  Local_u8Priority = copy_u8GroupPriority   						   ;  break ;
 800254a:	797b      	ldrb	r3, [r7, #5]
 800254c:	73bb      	strb	r3, [r7, #14]
 800254e:	e01a      	b.n	8002586 <MNVIC_SetInterruptPriority+0x96>
		  case GP_04_SP_04 :  Local_u8Priority = (copy_u8GroupPriority<<2) | copy_u8SubPriority    ;  break ;
 8002550:	797b      	ldrb	r3, [r7, #5]
 8002552:	009b      	lsls	r3, r3, #2
 8002554:	b25a      	sxtb	r2, r3
 8002556:	f997 3004 	ldrsb.w	r3, [r7, #4]
 800255a:	4313      	orrs	r3, r2
 800255c:	b25b      	sxtb	r3, r3
 800255e:	73bb      	strb	r3, [r7, #14]
 8002560:	e011      	b.n	8002586 <MNVIC_SetInterruptPriority+0x96>
		  case GP_02_SP_08 :  Local_u8Priority = (copy_u8GroupPriority<<3) | copy_u8SubPriority    ;  break ;
 8002562:	797b      	ldrb	r3, [r7, #5]
 8002564:	00db      	lsls	r3, r3, #3
 8002566:	b25a      	sxtb	r2, r3
 8002568:	f997 3004 	ldrsb.w	r3, [r7, #4]
 800256c:	4313      	orrs	r3, r2
 800256e:	b25b      	sxtb	r3, r3
 8002570:	73bb      	strb	r3, [r7, #14]
 8002572:	e008      	b.n	8002586 <MNVIC_SetInterruptPriority+0x96>
		  case GP_08_SP_02 :  Local_u8Priority = (copy_u8GroupPriority<<1) | copy_u8SubPriority    ;  break ;
 8002574:	797b      	ldrb	r3, [r7, #5]
 8002576:	005b      	lsls	r3, r3, #1
 8002578:	b25a      	sxtb	r2, r3
 800257a:	f997 3004 	ldrsb.w	r3, [r7, #4]
 800257e:	4313      	orrs	r3, r2
 8002580:	b25b      	sxtb	r3, r3
 8002582:	73bb      	strb	r3, [r7, #14]
 8002584:	bf00      	nop
		  }


		  MNVIC_PERIPHERAL->MNVIC_IPRx[copy_u8IntPos] = (Local_u8Priority<<4) ;
 8002586:	4909      	ldr	r1, [pc, #36]	; (80025ac <MNVIC_SetInterruptPriority+0xbc>)
 8002588:	79fb      	ldrb	r3, [r7, #7]
 800258a:	7bba      	ldrb	r2, [r7, #14]
 800258c:	0112      	lsls	r2, r2, #4
 800258e:	b2d2      	uxtb	r2, r2
 8002590:	440b      	add	r3, r1
 8002592:	f883 2300 	strb.w	r2, [r3, #768]	; 0x300

//		uint8_t Local_u8Priority =  copy_u8SubPriority | (copy_u8GroupPriority << (copy_uddtGroupOption-3) ) ;
//		MNVIC_PERIPHERAL -> MNVIC_IPRx[copy_u8IntPos/32] = (Local_u8Priority << 4 );
		ret = MNVIC_OK;
 8002596:	2300      	movs	r3, #0
 8002598:	73fb      	strb	r3, [r7, #15]
	{
 800259a:	e001      	b.n	80025a0 <MNVIC_SetInterruptPriority+0xb0>
	}
	else
	{
		ret = MNVIC_INVALID_PARAMTER;
 800259c:	2302      	movs	r3, #2
 800259e:	73fb      	strb	r3, [r7, #15]
	}

	return ret;
 80025a0:	7bfb      	ldrb	r3, [r7, #15]
}
 80025a2:	4618      	mov	r0, r3
 80025a4:	3710      	adds	r7, #16
 80025a6:	46bd      	mov	sp, r7
 80025a8:	bc90      	pop	{r4, r7}
 80025aa:	4770      	bx	lr
 80025ac:	e000e100 	.word	0xe000e100

080025b0 <MNVIC_SetInterruptGroup>:

EN_MNVIC_systemState_t MNVIC_SetInterruptGroup(EN_MNVIC_priorityGrouping_t copy_uddtGroupOption)
{
 80025b0:	b480      	push	{r7}
 80025b2:	b085      	sub	sp, #20
 80025b4:	af00      	add	r7, sp, #0
 80025b6:	4603      	mov	r3, r0
 80025b8:	71fb      	strb	r3, [r7, #7]
	EN_MNVIC_systemState_t ret = MNVIC_NOK;
 80025ba:	2301      	movs	r3, #1
 80025bc:	73fb      	strb	r3, [r7, #15]
	if(copy_uddtGroupOption >= GP_16_SP_00 && copy_uddtGroupOption <= GP_00_SP_16 )
 80025be:	79fb      	ldrb	r3, [r7, #7]
 80025c0:	2b04      	cmp	r3, #4
 80025c2:	d80d      	bhi.n	80025e0 <MNVIC_SetInterruptGroup+0x30>
	{
		SCB_AIRCR = MNVIC_VECTKEY;
 80025c4:	4b0b      	ldr	r3, [pc, #44]	; (80025f4 <MNVIC_SetInterruptGroup+0x44>)
 80025c6:	4a0c      	ldr	r2, [pc, #48]	; (80025f8 <MNVIC_SetInterruptGroup+0x48>)
 80025c8:	601a      	str	r2, [r3, #0]
		SCB_AIRCR = MNVIC_VECTKEY|(copy_uddtGroupOption<<8);
 80025ca:	79fb      	ldrb	r3, [r7, #7]
 80025cc:	021b      	lsls	r3, r3, #8
 80025ce:	f043 63bf 	orr.w	r3, r3, #100139008	; 0x5f80000
 80025d2:	f443 3300 	orr.w	r3, r3, #131072	; 0x20000
 80025d6:	4a07      	ldr	r2, [pc, #28]	; (80025f4 <MNVIC_SetInterruptGroup+0x44>)
 80025d8:	6013      	str	r3, [r2, #0]
		ret = MNVIC_OK;
 80025da:	2300      	movs	r3, #0
 80025dc:	73fb      	strb	r3, [r7, #15]
 80025de:	e001      	b.n	80025e4 <MNVIC_SetInterruptGroup+0x34>
	}
	else
	{
		ret = MNVIC_INVALID_PARAMTER;
 80025e0:	2302      	movs	r3, #2
 80025e2:	73fb      	strb	r3, [r7, #15]
	}

	return ret;
 80025e4:	7bfb      	ldrb	r3, [r7, #15]
}
 80025e6:	4618      	mov	r0, r3
 80025e8:	3714      	adds	r7, #20
 80025ea:	46bd      	mov	sp, r7
 80025ec:	f85d 7b04 	ldr.w	r7, [sp], #4
 80025f0:	4770      	bx	lr
 80025f2:	bf00      	nop
 80025f4:	e000ed0c 	.word	0xe000ed0c
 80025f8:	05fa0000 	.word	0x05fa0000

080025fc <MRCC_Init>:

#include "../../../Inc/MCAL/rcc/rcc_interface.h"


EN_MRCC_systemState_t MRCC_Init(void)
{
 80025fc:	b480      	push	{r7}
 80025fe:	b083      	sub	sp, #12
 8002600:	af00      	add	r7, sp, #0
	EN_MRCC_systemState_t ret = MRCC_NOK;
 8002602:	2301      	movs	r3, #1
 8002604:	71fb      	strb	r3, [r7, #7]

		MRCC_PERIPHERAL->RCC_CFGR_REG = ((MRCC_PERIPHERAL->RCC_CFGR_REG & 0xFFFFFFFC ) | (sysClkSelect << SW0_BIT));
 8002606:	4b0f      	ldr	r3, [pc, #60]	; (8002644 <MRCC_Init+0x48>)
 8002608:	689b      	ldr	r3, [r3, #8]
 800260a:	4a0e      	ldr	r2, [pc, #56]	; (8002644 <MRCC_Init+0x48>)
 800260c:	f023 0303 	bic.w	r3, r3, #3
 8002610:	6093      	str	r3, [r2, #8]

		if(sysClkSelect == MRCC_SYS_CLK_HSI )
		{
			SET_BIT(MRCC_PERIPHERAL->RCC_CR_REG , HSION_BIT );
 8002612:	4b0c      	ldr	r3, [pc, #48]	; (8002644 <MRCC_Init+0x48>)
 8002614:	681b      	ldr	r3, [r3, #0]
 8002616:	4a0b      	ldr	r2, [pc, #44]	; (8002644 <MRCC_Init+0x48>)
 8002618:	f043 0301 	orr.w	r3, r3, #1
 800261c:	6013      	str	r3, [r2, #0]
			ret = MRCC_OK;
 800261e:	2300      	movs	r3, #0
 8002620:	71fb      	strb	r3, [r7, #7]
		}
		else
		{
			ret = MRCC_INVALID_PARAMTER;
		}
		MRCC_PERIPHERAL->RCC_CFGR_REG = ((MRCC_PERIPHERAL->RCC_CFGR_REG & 0xFFFF030F )
 8002622:	4b08      	ldr	r3, [pc, #32]	; (8002644 <MRCC_Init+0x48>)
 8002624:	689b      	ldr	r3, [r3, #8]
 8002626:	f423 437c 	bic.w	r3, r3, #64512	; 0xfc00
 800262a:	f023 03f0 	bic.w	r3, r3, #240	; 0xf0
 800262e:	4a05      	ldr	r2, [pc, #20]	; (8002644 <MRCC_Init+0x48>)
						|(ahbPrescaler << HPRE0_BIT)
						|(apbLowSpeedPrescaler << PPRE10_BIT)
						|(apbHighSpeedPrescaler << PPRE20_BIT));
 8002630:	f043 0380 	orr.w	r3, r3, #128	; 0x80
		MRCC_PERIPHERAL->RCC_CFGR_REG = ((MRCC_PERIPHERAL->RCC_CFGR_REG & 0xFFFF030F )
 8002634:	6093      	str	r3, [r2, #8]
	return ret;
 8002636:	79fb      	ldrb	r3, [r7, #7]
}
 8002638:	4618      	mov	r0, r3
 800263a:	370c      	adds	r7, #12
 800263c:	46bd      	mov	sp, r7
 800263e:	f85d 7b04 	ldr.w	r7, [sp], #4
 8002642:	4770      	bx	lr
 8002644:	40023800 	.word	0x40023800

08002648 <MRCC_enablePeripheral>:


EN_MRCC_systemState_t MRCC_enablePeripheral(EN_MRCC_busOptions_t busSelection,EN_MRCC_peripheralOptions_t PeripheralNumber)
{
 8002648:	b480      	push	{r7}
 800264a:	b085      	sub	sp, #20
 800264c:	af00      	add	r7, sp, #0
 800264e:	4603      	mov	r3, r0
 8002650:	460a      	mov	r2, r1
 8002652:	71fb      	strb	r3, [r7, #7]
 8002654:	4613      	mov	r3, r2
 8002656:	71bb      	strb	r3, [r7, #6]
	EN_MRCC_systemState_t ret = MRCC_NOK;
 8002658:	2301      	movs	r3, #1
 800265a:	73fb      	strb	r3, [r7, #15]
	if((busSelection >=0 && busSelection <=4 ) && (PeripheralNumber >=0 && PeripheralNumber <= 31))
 800265c:	79fb      	ldrb	r3, [r7, #7]
 800265e:	2b04      	cmp	r3, #4
 8002660:	d848      	bhi.n	80026f4 <MRCC_enablePeripheral+0xac>
 8002662:	79bb      	ldrb	r3, [r7, #6]
 8002664:	2b1f      	cmp	r3, #31
 8002666:	d845      	bhi.n	80026f4 <MRCC_enablePeripheral+0xac>
	{
		switch(busSelection)
 8002668:	79fb      	ldrb	r3, [r7, #7]
 800266a:	2b03      	cmp	r3, #3
 800266c:	d83e      	bhi.n	80026ec <MRCC_enablePeripheral+0xa4>
 800266e:	a201      	add	r2, pc, #4	; (adr r2, 8002674 <MRCC_enablePeripheral+0x2c>)
 8002670:	f852 f023 	ldr.w	pc, [r2, r3, lsl #2]
 8002674:	08002685 	.word	0x08002685
 8002678:	0800269f 	.word	0x0800269f
 800267c:	080026b9 	.word	0x080026b9
 8002680:	080026d3 	.word	0x080026d3
		{
			case MRCC_AHP1_BUS :
			{
				SET_BIT(MRCC_PERIPHERAL->RCC_AHB1ENR_REG , PeripheralNumber);
 8002684:	4b20      	ldr	r3, [pc, #128]	; (8002708 <MRCC_enablePeripheral+0xc0>)
 8002686:	6b1b      	ldr	r3, [r3, #48]	; 0x30
 8002688:	79ba      	ldrb	r2, [r7, #6]
 800268a:	2101      	movs	r1, #1
 800268c:	fa01 f202 	lsl.w	r2, r1, r2
 8002690:	4611      	mov	r1, r2
 8002692:	4a1d      	ldr	r2, [pc, #116]	; (8002708 <MRCC_enablePeripheral+0xc0>)
 8002694:	430b      	orrs	r3, r1
 8002696:	6313      	str	r3, [r2, #48]	; 0x30
				ret = MRCC_OK;
 8002698:	2300      	movs	r3, #0
 800269a:	73fb      	strb	r3, [r7, #15]
				break;
 800269c:	e029      	b.n	80026f2 <MRCC_enablePeripheral+0xaa>
			}
			case MRCC_AHP2_BUS :
			{
				SET_BIT(MRCC_PERIPHERAL->RCC_AHB2ENR_REG , PeripheralNumber);
 800269e:	4b1a      	ldr	r3, [pc, #104]	; (8002708 <MRCC_enablePeripheral+0xc0>)
 80026a0:	6b5b      	ldr	r3, [r3, #52]	; 0x34
 80026a2:	79ba      	ldrb	r2, [r7, #6]
 80026a4:	2101      	movs	r1, #1
 80026a6:	fa01 f202 	lsl.w	r2, r1, r2
 80026aa:	4611      	mov	r1, r2
 80026ac:	4a16      	ldr	r2, [pc, #88]	; (8002708 <MRCC_enablePeripheral+0xc0>)
 80026ae:	430b      	orrs	r3, r1
 80026b0:	6353      	str	r3, [r2, #52]	; 0x34
				ret = MRCC_OK;
 80026b2:	2300      	movs	r3, #0
 80026b4:	73fb      	strb	r3, [r7, #15]
				break;
 80026b6:	e01c      	b.n	80026f2 <MRCC_enablePeripheral+0xaa>
			}
			case MRCC_APB1_BUS :
			{
				SET_BIT(MRCC_PERIPHERAL->RCC_APB1ENR_REG , PeripheralNumber);
 80026b8:	4b13      	ldr	r3, [pc, #76]	; (8002708 <MRCC_enablePeripheral+0xc0>)
 80026ba:	6c1b      	ldr	r3, [r3, #64]	; 0x40
 80026bc:	79ba      	ldrb	r2, [r7, #6]
 80026be:	2101      	movs	r1, #1
 80026c0:	fa01 f202 	lsl.w	r2, r1, r2
 80026c4:	4611      	mov	r1, r2
 80026c6:	4a10      	ldr	r2, [pc, #64]	; (8002708 <MRCC_enablePeripheral+0xc0>)
 80026c8:	430b      	orrs	r3, r1
 80026ca:	6413      	str	r3, [r2, #64]	; 0x40
				ret = MRCC_OK;
 80026cc:	2300      	movs	r3, #0
 80026ce:	73fb      	strb	r3, [r7, #15]
				break;
 80026d0:	e00f      	b.n	80026f2 <MRCC_enablePeripheral+0xaa>
			}
			case MRCC_APB2_BUS :
			{
				SET_BIT(MRCC_PERIPHERAL->RCC_APB2ENR_REG , PeripheralNumber);
 80026d2:	4b0d      	ldr	r3, [pc, #52]	; (8002708 <MRCC_enablePeripheral+0xc0>)
 80026d4:	6c5b      	ldr	r3, [r3, #68]	; 0x44
 80026d6:	79ba      	ldrb	r2, [r7, #6]
 80026d8:	2101      	movs	r1, #1
 80026da:	fa01 f202 	lsl.w	r2, r1, r2
 80026de:	4611      	mov	r1, r2
 80026e0:	4a09      	ldr	r2, [pc, #36]	; (8002708 <MRCC_enablePeripheral+0xc0>)
 80026e2:	430b      	orrs	r3, r1
 80026e4:	6453      	str	r3, [r2, #68]	; 0x44
				ret = MRCC_OK;
 80026e6:	2300      	movs	r3, #0
 80026e8:	73fb      	strb	r3, [r7, #15]
				break;
 80026ea:	e002      	b.n	80026f2 <MRCC_enablePeripheral+0xaa>
			}
			default :
			{
				ret = MRCC_INVALID_PARAMTER;
 80026ec:	2303      	movs	r3, #3
 80026ee:	73fb      	strb	r3, [r7, #15]
		switch(busSelection)
 80026f0:	e002      	b.n	80026f8 <MRCC_enablePeripheral+0xb0>
 80026f2:	e001      	b.n	80026f8 <MRCC_enablePeripheral+0xb0>
			}
		}
	}
	else
	{
		ret = MRCC_INVALID_PARAMTER;
 80026f4:	2303      	movs	r3, #3
 80026f6:	73fb      	strb	r3, [r7, #15]
	}
	return ret;
 80026f8:	7bfb      	ldrb	r3, [r7, #15]
}
 80026fa:	4618      	mov	r0, r3
 80026fc:	3714      	adds	r7, #20
 80026fe:	46bd      	mov	sp, r7
 8002700:	f85d 7b04 	ldr.w	r7, [sp], #4
 8002704:	4770      	bx	lr
 8002706:	bf00      	nop
 8002708:	40023800 	.word	0x40023800

0800270c <HAL_DeInit>:
	return ret;
}


void HAL_DeInit(void)
{
 800270c:	b480      	push	{r7}
 800270e:	af00      	add	r7, sp, #0
  /* Reset of all peripherals */
  __HAL_RCC_APB1_FORCE_RESET();
 8002710:	4b0c      	ldr	r3, [pc, #48]	; (8002744 <HAL_DeInit+0x38>)
 8002712:	f04f 32ff 	mov.w	r2, #4294967295
 8002716:	621a      	str	r2, [r3, #32]
  __HAL_RCC_APB1_RELEASE_RESET();
 8002718:	4b0a      	ldr	r3, [pc, #40]	; (8002744 <HAL_DeInit+0x38>)
 800271a:	2200      	movs	r2, #0
 800271c:	621a      	str	r2, [r3, #32]

  __HAL_RCC_APB2_FORCE_RESET();
 800271e:	4b09      	ldr	r3, [pc, #36]	; (8002744 <HAL_DeInit+0x38>)
 8002720:	f04f 32ff 	mov.w	r2, #4294967295
 8002724:	625a      	str	r2, [r3, #36]	; 0x24
  __HAL_RCC_APB2_RELEASE_RESET();
 8002726:	4b07      	ldr	r3, [pc, #28]	; (8002744 <HAL_DeInit+0x38>)
 8002728:	2200      	movs	r2, #0
 800272a:	625a      	str	r2, [r3, #36]	; 0x24

  __HAL_RCC_AHB1_FORCE_RESET();
 800272c:	4b05      	ldr	r3, [pc, #20]	; (8002744 <HAL_DeInit+0x38>)
 800272e:	f04f 32ff 	mov.w	r2, #4294967295
 8002732:	611a      	str	r2, [r3, #16]
  __HAL_RCC_AHB1_RELEASE_RESET();
 8002734:	4b03      	ldr	r3, [pc, #12]	; (8002744 <HAL_DeInit+0x38>)
 8002736:	2200      	movs	r2, #0
 8002738:	611a      	str	r2, [r3, #16]

}
 800273a:	bf00      	nop
 800273c:	46bd      	mov	sp, r7
 800273e:	f85d 7b04 	ldr.w	r7, [sp], #4
 8002742:	4770      	bx	lr
 8002744:	40023800 	.word	0x40023800

08002748 <SysTick_Handler>:
	return ret;
}


void SysTick_Handler(void)
{
 8002748:	b580      	push	{r7, lr}
 800274a:	b082      	sub	sp, #8
 800274c:	af00      	add	r7, sp, #0
	if(PTR_NULL != pfForStkCallBack)
 800274e:	4b19      	ldr	r3, [pc, #100]	; (80027b4 <SysTick_Handler+0x6c>)
 8002750:	681b      	ldr	r3, [r3, #0]
 8002752:	2b00      	cmp	r3, #0
 8002754:	d02a      	beq.n	80027ac <SysTick_Handler+0x64>
	{
		uint8_t u8TempForFlagReading = 0;
 8002756:	2300      	movs	r3, #0
 8002758:	71fb      	strb	r3, [r7, #7]
		if(g_u8intervalMode == MSTK_IntervalSingle)
 800275a:	4b17      	ldr	r3, [pc, #92]	; (80027b8 <SysTick_Handler+0x70>)
 800275c:	781b      	ldrb	r3, [r3, #0]
 800275e:	2b00      	cmp	r3, #0
 8002760:	d116      	bne.n	8002790 <SysTick_Handler+0x48>
		{
			u8TempForFlagReading = GET_BIT(MSTK_PERIPHERAL->MSTK_STK_CTRL , MSTK_COUNTFLAG_BIT);
 8002762:	4b16      	ldr	r3, [pc, #88]	; (80027bc <SysTick_Handler+0x74>)
 8002764:	681b      	ldr	r3, [r3, #0]
 8002766:	0c1b      	lsrs	r3, r3, #16
 8002768:	b2db      	uxtb	r3, r3
 800276a:	f003 0301 	and.w	r3, r3, #1
 800276e:	71fb      	strb	r3, [r7, #7]
			pfForStkCallBack();
 8002770:	4b10      	ldr	r3, [pc, #64]	; (80027b4 <SysTick_Handler+0x6c>)
 8002772:	681b      	ldr	r3, [r3, #0]
 8002774:	4798      	blx	r3
			CLR_BIT(MSTK_PERIPHERAL->MSTK_STK_CTRL , MSTK_ENABLE_BIT);
 8002776:	4b11      	ldr	r3, [pc, #68]	; (80027bc <SysTick_Handler+0x74>)
 8002778:	681b      	ldr	r3, [r3, #0]
 800277a:	4a10      	ldr	r2, [pc, #64]	; (80027bc <SysTick_Handler+0x74>)
 800277c:	f023 0301 	bic.w	r3, r3, #1
 8002780:	6013      	str	r3, [r2, #0]
			MSTK_PERIPHERAL->MSTK_STK_LOAD = 0;
 8002782:	4b0e      	ldr	r3, [pc, #56]	; (80027bc <SysTick_Handler+0x74>)
 8002784:	2200      	movs	r2, #0
 8002786:	605a      	str	r2, [r3, #4]
			MSTK_PERIPHERAL->MSTK_STK_VAL = 0;
 8002788:	4b0c      	ldr	r3, [pc, #48]	; (80027bc <SysTick_Handler+0x74>)
 800278a:	2200      	movs	r2, #0
 800278c:	609a      	str	r2, [r3, #8]
	}
	else
	{
		/* Do Nothing */
	}
}
 800278e:	e00d      	b.n	80027ac <SysTick_Handler+0x64>
		else if(g_u8intervalMode == MSTK_IntervalPeriodic)
 8002790:	4b09      	ldr	r3, [pc, #36]	; (80027b8 <SysTick_Handler+0x70>)
 8002792:	781b      	ldrb	r3, [r3, #0]
 8002794:	2b01      	cmp	r3, #1
 8002796:	d109      	bne.n	80027ac <SysTick_Handler+0x64>
			u8TempForFlagReading = GET_BIT(MSTK_PERIPHERAL->MSTK_STK_CTRL , MSTK_COUNTFLAG_BIT);
 8002798:	4b08      	ldr	r3, [pc, #32]	; (80027bc <SysTick_Handler+0x74>)
 800279a:	681b      	ldr	r3, [r3, #0]
 800279c:	0c1b      	lsrs	r3, r3, #16
 800279e:	b2db      	uxtb	r3, r3
 80027a0:	f003 0301 	and.w	r3, r3, #1
 80027a4:	71fb      	strb	r3, [r7, #7]
			pfForStkCallBack();
 80027a6:	4b03      	ldr	r3, [pc, #12]	; (80027b4 <SysTick_Handler+0x6c>)
 80027a8:	681b      	ldr	r3, [r3, #0]
 80027aa:	4798      	blx	r3
}
 80027ac:	bf00      	nop
 80027ae:	3708      	adds	r7, #8
 80027b0:	46bd      	mov	sp, r7
 80027b2:	bd80      	pop	{r7, pc}
 80027b4:	20000100 	.word	0x20000100
 80027b8:	20000104 	.word	0x20000104
 80027bc:	e000e010 	.word	0xe000e010

080027c0 <MTMR_vStartTimer>:

#include "../../../Inc/MCAL/tmr/tmr_interface.h"
#include "../../../Inc/MCAL/gpio/gpio_interface.h"

void 	 MTMR_vStartTimer(EN_MTMR_number_t copy_uddtTMRNumber)
{
 80027c0:	b480      	push	{r7}
 80027c2:	b083      	sub	sp, #12
 80027c4:	af00      	add	r7, sp, #0
 80027c6:	4603      	mov	r3, r0
 80027c8:	71fb      	strb	r3, [r7, #7]
	switch(copy_uddtTMRNumber)
 80027ca:	79fb      	ldrb	r3, [r7, #7]
 80027cc:	2b03      	cmp	r3, #3
 80027ce:	d829      	bhi.n	8002824 <MTMR_vStartTimer+0x64>
 80027d0:	a201      	add	r2, pc, #4	; (adr r2, 80027d8 <MTMR_vStartTimer+0x18>)
 80027d2:	f852 f023 	ldr.w	pc, [r2, r3, lsl #2]
 80027d6:	bf00      	nop
 80027d8:	080027e9 	.word	0x080027e9
 80027dc:	080027fb 	.word	0x080027fb
 80027e0:	08002809 	.word	0x08002809
 80027e4:	08002817 	.word	0x08002817
	{
	case MTMR2:
		SET_BIT(MTMR2_PERIPHERAL -> MTMRx_CR1, CEN_BIT); break;
 80027e8:	f04f 4380 	mov.w	r3, #1073741824	; 0x40000000
 80027ec:	681b      	ldr	r3, [r3, #0]
 80027ee:	f04f 4280 	mov.w	r2, #1073741824	; 0x40000000
 80027f2:	f043 0301 	orr.w	r3, r3, #1
 80027f6:	6013      	str	r3, [r2, #0]
 80027f8:	e015      	b.n	8002826 <MTMR_vStartTimer+0x66>
	case MTMR3:
		SET_BIT(MTMR3_PERIPHERAL -> MTMRx_CR1, CEN_BIT); break;
 80027fa:	4b0e      	ldr	r3, [pc, #56]	; (8002834 <MTMR_vStartTimer+0x74>)
 80027fc:	681b      	ldr	r3, [r3, #0]
 80027fe:	4a0d      	ldr	r2, [pc, #52]	; (8002834 <MTMR_vStartTimer+0x74>)
 8002800:	f043 0301 	orr.w	r3, r3, #1
 8002804:	6013      	str	r3, [r2, #0]
 8002806:	e00e      	b.n	8002826 <MTMR_vStartTimer+0x66>
	case MTMR4:
		SET_BIT(MTMR4_PERIPHERAL -> MTMRx_CR1, CEN_BIT); break;
 8002808:	4b0b      	ldr	r3, [pc, #44]	; (8002838 <MTMR_vStartTimer+0x78>)
 800280a:	681b      	ldr	r3, [r3, #0]
 800280c:	4a0a      	ldr	r2, [pc, #40]	; (8002838 <MTMR_vStartTimer+0x78>)
 800280e:	f043 0301 	orr.w	r3, r3, #1
 8002812:	6013      	str	r3, [r2, #0]
 8002814:	e007      	b.n	8002826 <MTMR_vStartTimer+0x66>
	case MTMR5:
		SET_BIT(MTMR5_PERIPHERAL -> MTMRx_CR1, CEN_BIT); break;
 8002816:	4b09      	ldr	r3, [pc, #36]	; (800283c <MTMR_vStartTimer+0x7c>)
 8002818:	681b      	ldr	r3, [r3, #0]
 800281a:	4a08      	ldr	r2, [pc, #32]	; (800283c <MTMR_vStartTimer+0x7c>)
 800281c:	f043 0301 	orr.w	r3, r3, #1
 8002820:	6013      	str	r3, [r2, #0]
 8002822:	e000      	b.n	8002826 <MTMR_vStartTimer+0x66>

	default:                               break;
 8002824:	bf00      	nop
	}
}
 8002826:	bf00      	nop
 8002828:	370c      	adds	r7, #12
 800282a:	46bd      	mov	sp, r7
 800282c:	f85d 7b04 	ldr.w	r7, [sp], #4
 8002830:	4770      	bx	lr
 8002832:	bf00      	nop
 8002834:	40000400 	.word	0x40000400
 8002838:	40000800 	.word	0x40000800
 800283c:	40000c00 	.word	0x40000c00

08002840 <MTMR_vStopTimer>:

void 	 MTMR_vStopTimer(EN_MTMR_number_t copy_uddtTMRNumber)
{
 8002840:	b480      	push	{r7}
 8002842:	b083      	sub	sp, #12
 8002844:	af00      	add	r7, sp, #0
 8002846:	4603      	mov	r3, r0
 8002848:	71fb      	strb	r3, [r7, #7]
	switch(copy_uddtTMRNumber)
 800284a:	79fb      	ldrb	r3, [r7, #7]
 800284c:	2b03      	cmp	r3, #3
 800284e:	d829      	bhi.n	80028a4 <MTMR_vStopTimer+0x64>
 8002850:	a201      	add	r2, pc, #4	; (adr r2, 8002858 <MTMR_vStopTimer+0x18>)
 8002852:	f852 f023 	ldr.w	pc, [r2, r3, lsl #2]
 8002856:	bf00      	nop
 8002858:	08002869 	.word	0x08002869
 800285c:	0800287b 	.word	0x0800287b
 8002860:	08002889 	.word	0x08002889
 8002864:	08002897 	.word	0x08002897
	{
	case MTMR2:
		CLR_BIT(MTMR2_PERIPHERAL -> MTMRx_CR1, CEN_BIT); break;
 8002868:	f04f 4380 	mov.w	r3, #1073741824	; 0x40000000
 800286c:	681b      	ldr	r3, [r3, #0]
 800286e:	f04f 4280 	mov.w	r2, #1073741824	; 0x40000000
 8002872:	f023 0301 	bic.w	r3, r3, #1
 8002876:	6013      	str	r3, [r2, #0]
 8002878:	e015      	b.n	80028a6 <MTMR_vStopTimer+0x66>
	case MTMR3:
		CLR_BIT(MTMR3_PERIPHERAL -> MTMRx_CR1, CEN_BIT); break;
 800287a:	4b0e      	ldr	r3, [pc, #56]	; (80028b4 <MTMR_vStopTimer+0x74>)
 800287c:	681b      	ldr	r3, [r3, #0]
 800287e:	4a0d      	ldr	r2, [pc, #52]	; (80028b4 <MTMR_vStopTimer+0x74>)
 8002880:	f023 0301 	bic.w	r3, r3, #1
 8002884:	6013      	str	r3, [r2, #0]
 8002886:	e00e      	b.n	80028a6 <MTMR_vStopTimer+0x66>
	case MTMR4:
		CLR_BIT(MTMR4_PERIPHERAL -> MTMRx_CR1, CEN_BIT); break;
 8002888:	4b0b      	ldr	r3, [pc, #44]	; (80028b8 <MTMR_vStopTimer+0x78>)
 800288a:	681b      	ldr	r3, [r3, #0]
 800288c:	4a0a      	ldr	r2, [pc, #40]	; (80028b8 <MTMR_vStopTimer+0x78>)
 800288e:	f023 0301 	bic.w	r3, r3, #1
 8002892:	6013      	str	r3, [r2, #0]
 8002894:	e007      	b.n	80028a6 <MTMR_vStopTimer+0x66>
	case MTMR5:
		CLR_BIT(MTMR5_PERIPHERAL -> MTMRx_CR1, CEN_BIT); break;
 8002896:	4b09      	ldr	r3, [pc, #36]	; (80028bc <MTMR_vStopTimer+0x7c>)
 8002898:	681b      	ldr	r3, [r3, #0]
 800289a:	4a08      	ldr	r2, [pc, #32]	; (80028bc <MTMR_vStopTimer+0x7c>)
 800289c:	f023 0301 	bic.w	r3, r3, #1
 80028a0:	6013      	str	r3, [r2, #0]
 80028a2:	e000      	b.n	80028a6 <MTMR_vStopTimer+0x66>

	default:                               break;
 80028a4:	bf00      	nop
	}
}
 80028a6:	bf00      	nop
 80028a8:	370c      	adds	r7, #12
 80028aa:	46bd      	mov	sp, r7
 80028ac:	f85d 7b04 	ldr.w	r7, [sp], #4
 80028b0:	4770      	bx	lr
 80028b2:	bf00      	nop
 80028b4:	40000400 	.word	0x40000400
 80028b8:	40000800 	.word	0x40000800
 80028bc:	40000c00 	.word	0x40000c00

080028c0 <MTMR_vSetTimerPrescaler>:


void 	 MTMR_vSetTimerPrescaler(EN_MTMR_number_t copy_uddtTMRNumber, uint16_t copy_u16Value)
{
 80028c0:	b480      	push	{r7}
 80028c2:	b083      	sub	sp, #12
 80028c4:	af00      	add	r7, sp, #0
 80028c6:	4603      	mov	r3, r0
 80028c8:	460a      	mov	r2, r1
 80028ca:	71fb      	strb	r3, [r7, #7]
 80028cc:	4613      	mov	r3, r2
 80028ce:	80bb      	strh	r3, [r7, #4]
	switch(copy_uddtTMRNumber)
 80028d0:	79fb      	ldrb	r3, [r7, #7]
 80028d2:	2b03      	cmp	r3, #3
 80028d4:	d835      	bhi.n	8002942 <MTMR_vSetTimerPrescaler+0x82>
 80028d6:	a201      	add	r2, pc, #4	; (adr r2, 80028dc <MTMR_vSetTimerPrescaler+0x1c>)
 80028d8:	f852 f023 	ldr.w	pc, [r2, r3, lsl #2]
 80028dc:	080028ed 	.word	0x080028ed
 80028e0:	08002907 	.word	0x08002907
 80028e4:	0800291b 	.word	0x0800291b
 80028e8:	0800292f 	.word	0x0800292f
	{
	case MTMR2:
		CLR_ALL_BITS(MTMR2_PERIPHERAL -> MTMRx_PSC);
 80028ec:	f04f 4380 	mov.w	r3, #1073741824	; 0x40000000
 80028f0:	2200      	movs	r2, #0
 80028f2:	629a      	str	r2, [r3, #40]	; 0x28
		MTMR2_PERIPHERAL -> MTMRx_PSC |= copy_u16Value;
 80028f4:	f04f 4380 	mov.w	r3, #1073741824	; 0x40000000
 80028f8:	6a9a      	ldr	r2, [r3, #40]	; 0x28
 80028fa:	88bb      	ldrh	r3, [r7, #4]
 80028fc:	f04f 4180 	mov.w	r1, #1073741824	; 0x40000000
 8002900:	4313      	orrs	r3, r2
 8002902:	628b      	str	r3, [r1, #40]	; 0x28
		break;
 8002904:	e01e      	b.n	8002944 <MTMR_vSetTimerPrescaler+0x84>
	case MTMR3:
		CLR_ALL_BITS(MTMR3_PERIPHERAL -> MTMRx_PSC);
 8002906:	4b12      	ldr	r3, [pc, #72]	; (8002950 <MTMR_vSetTimerPrescaler+0x90>)
 8002908:	2200      	movs	r2, #0
 800290a:	629a      	str	r2, [r3, #40]	; 0x28
		MTMR3_PERIPHERAL -> MTMRx_PSC |= copy_u16Value;
 800290c:	4b10      	ldr	r3, [pc, #64]	; (8002950 <MTMR_vSetTimerPrescaler+0x90>)
 800290e:	6a9a      	ldr	r2, [r3, #40]	; 0x28
 8002910:	88bb      	ldrh	r3, [r7, #4]
 8002912:	490f      	ldr	r1, [pc, #60]	; (8002950 <MTMR_vSetTimerPrescaler+0x90>)
 8002914:	4313      	orrs	r3, r2
 8002916:	628b      	str	r3, [r1, #40]	; 0x28
		break;
 8002918:	e014      	b.n	8002944 <MTMR_vSetTimerPrescaler+0x84>
	case MTMR4:
		CLR_ALL_BITS(MTMR4_PERIPHERAL -> MTMRx_PSC);
 800291a:	4b0e      	ldr	r3, [pc, #56]	; (8002954 <MTMR_vSetTimerPrescaler+0x94>)
 800291c:	2200      	movs	r2, #0
 800291e:	629a      	str	r2, [r3, #40]	; 0x28
		MTMR4_PERIPHERAL -> MTMRx_PSC |= copy_u16Value;
 8002920:	4b0c      	ldr	r3, [pc, #48]	; (8002954 <MTMR_vSetTimerPrescaler+0x94>)
 8002922:	6a9a      	ldr	r2, [r3, #40]	; 0x28
 8002924:	88bb      	ldrh	r3, [r7, #4]
 8002926:	490b      	ldr	r1, [pc, #44]	; (8002954 <MTMR_vSetTimerPrescaler+0x94>)
 8002928:	4313      	orrs	r3, r2
 800292a:	628b      	str	r3, [r1, #40]	; 0x28
		break;
 800292c:	e00a      	b.n	8002944 <MTMR_vSetTimerPrescaler+0x84>
	case MTMR5:
		CLR_ALL_BITS(MTMR5_PERIPHERAL -> MTMRx_PSC);
 800292e:	4b0a      	ldr	r3, [pc, #40]	; (8002958 <MTMR_vSetTimerPrescaler+0x98>)
 8002930:	2200      	movs	r2, #0
 8002932:	629a      	str	r2, [r3, #40]	; 0x28
		MTMR5_PERIPHERAL -> MTMRx_PSC |= copy_u16Value;
 8002934:	4b08      	ldr	r3, [pc, #32]	; (8002958 <MTMR_vSetTimerPrescaler+0x98>)
 8002936:	6a9a      	ldr	r2, [r3, #40]	; 0x28
 8002938:	88bb      	ldrh	r3, [r7, #4]
 800293a:	4907      	ldr	r1, [pc, #28]	; (8002958 <MTMR_vSetTimerPrescaler+0x98>)
 800293c:	4313      	orrs	r3, r2
 800293e:	628b      	str	r3, [r1, #40]	; 0x28
		break;
 8002940:	e000      	b.n	8002944 <MTMR_vSetTimerPrescaler+0x84>
	default:                               break;
 8002942:	bf00      	nop
	}
}
 8002944:	bf00      	nop
 8002946:	370c      	adds	r7, #12
 8002948:	46bd      	mov	sp, r7
 800294a:	f85d 7b04 	ldr.w	r7, [sp], #4
 800294e:	4770      	bx	lr
 8002950:	40000400 	.word	0x40000400
 8002954:	40000800 	.word	0x40000800
 8002958:	40000c00 	.word	0x40000c00

0800295c <MTMR_vSetTimerChannelOutput>:
}



void 	 MTMR_vSetTimerChannelOutput(EN_MTMR_number_t copy_uddtTMRNumber, EN_MTMR_selectedMode_t copy_uddtTimerMode, EN_MTMR_channel_t copy_uddtChannelNumber)
{
 800295c:	b480      	push	{r7}
 800295e:	b083      	sub	sp, #12
 8002960:	af00      	add	r7, sp, #0
 8002962:	4603      	mov	r3, r0
 8002964:	71fb      	strb	r3, [r7, #7]
 8002966:	460b      	mov	r3, r1
 8002968:	71bb      	strb	r3, [r7, #6]
 800296a:	4613      	mov	r3, r2
 800296c:	717b      	strb	r3, [r7, #5]
	switch(copy_uddtTMRNumber)
 800296e:	79fb      	ldrb	r3, [r7, #7]
 8002970:	2b00      	cmp	r3, #0
 8002972:	d002      	beq.n	800297a <MTMR_vSetTimerChannelOutput+0x1e>
 8002974:	2b01      	cmp	r3, #1
 8002976:	d047      	beq.n	8002a08 <MTMR_vSetTimerChannelOutput+0xac>
				case MTMR_CH3: break;
				case MTMR_CH4: break;
			}
		}

		default:                               break;
 8002978:	e06f      	b.n	8002a5a <MTMR_vSetTimerChannelOutput+0xfe>
			switch(copy_uddtChannelNumber)
 800297a:	797b      	ldrb	r3, [r7, #5]
 800297c:	3b01      	subs	r3, #1
 800297e:	2b03      	cmp	r3, #3
 8002980:	d869      	bhi.n	8002a56 <MTMR_vSetTimerChannelOutput+0xfa>
 8002982:	a201      	add	r2, pc, #4	; (adr r2, 8002988 <MTMR_vSetTimerChannelOutput+0x2c>)
 8002984:	f852 f023 	ldr.w	pc, [r2, r3, lsl #2]
 8002988:	08002999 	.word	0x08002999
 800298c:	08002a05 	.word	0x08002a05
 8002990:	080029cf 	.word	0x080029cf
 8002994:	08002a05 	.word	0x08002a05
					CLR_BITS(MTMR2_PERIPHERAL -> MTMRx_CCMR1, 0x00000073);
 8002998:	f04f 4380 	mov.w	r3, #1073741824	; 0x40000000
 800299c:	699b      	ldr	r3, [r3, #24]
 800299e:	f04f 4280 	mov.w	r2, #1073741824	; 0x40000000
 80029a2:	f023 0373 	bic.w	r3, r3, #115	; 0x73
 80029a6:	6193      	str	r3, [r2, #24]
					MTMR2_PERIPHERAL -> MTMRx_CCMR1 |= (copy_uddtTimerMode << OC1M_SHIFT);
 80029a8:	f04f 4380 	mov.w	r3, #1073741824	; 0x40000000
 80029ac:	699b      	ldr	r3, [r3, #24]
 80029ae:	79ba      	ldrb	r2, [r7, #6]
 80029b0:	0112      	lsls	r2, r2, #4
 80029b2:	4611      	mov	r1, r2
 80029b4:	f04f 4280 	mov.w	r2, #1073741824	; 0x40000000
 80029b8:	430b      	orrs	r3, r1
 80029ba:	6193      	str	r3, [r2, #24]
					SET_BIT(MTMR2_PERIPHERAL -> MTMRx_CCER, CC1EN_BIT);
 80029bc:	f04f 4380 	mov.w	r3, #1073741824	; 0x40000000
 80029c0:	6a1b      	ldr	r3, [r3, #32]
 80029c2:	f04f 4280 	mov.w	r2, #1073741824	; 0x40000000
 80029c6:	f043 0301 	orr.w	r3, r3, #1
 80029ca:	6213      	str	r3, [r2, #32]
					break;
 80029cc:	e01b      	b.n	8002a06 <MTMR_vSetTimerChannelOutput+0xaa>
					CLR_BITS(MTMR2_PERIPHERAL -> MTMRx_CCMR2, 0x00000073);
 80029ce:	f04f 4380 	mov.w	r3, #1073741824	; 0x40000000
 80029d2:	69db      	ldr	r3, [r3, #28]
 80029d4:	f04f 4280 	mov.w	r2, #1073741824	; 0x40000000
 80029d8:	f023 0373 	bic.w	r3, r3, #115	; 0x73
 80029dc:	61d3      	str	r3, [r2, #28]
					MTMR2_PERIPHERAL -> MTMRx_CCMR2 |= (copy_uddtTimerMode << OC1M_SHIFT);
 80029de:	f04f 4380 	mov.w	r3, #1073741824	; 0x40000000
 80029e2:	69db      	ldr	r3, [r3, #28]
 80029e4:	79ba      	ldrb	r2, [r7, #6]
 80029e6:	0112      	lsls	r2, r2, #4
 80029e8:	4611      	mov	r1, r2
 80029ea:	f04f 4280 	mov.w	r2, #1073741824	; 0x40000000
 80029ee:	430b      	orrs	r3, r1
 80029f0:	61d3      	str	r3, [r2, #28]
					SET_BIT(MTMR2_PERIPHERAL -> MTMRx_CCER, 8);
 80029f2:	f04f 4380 	mov.w	r3, #1073741824	; 0x40000000
 80029f6:	6a1b      	ldr	r3, [r3, #32]
 80029f8:	f04f 4280 	mov.w	r2, #1073741824	; 0x40000000
 80029fc:	f443 7380 	orr.w	r3, r3, #256	; 0x100
 8002a00:	6213      	str	r3, [r2, #32]
					break;
 8002a02:	e000      	b.n	8002a06 <MTMR_vSetTimerChannelOutput+0xaa>
				case MTMR_CH2:	break;
 8002a04:	bf00      	nop
			break;
 8002a06:	e026      	b.n	8002a56 <MTMR_vSetTimerChannelOutput+0xfa>
			switch(copy_uddtChannelNumber)
 8002a08:	797b      	ldrb	r3, [r7, #5]
 8002a0a:	3b01      	subs	r3, #1
 8002a0c:	2b03      	cmp	r3, #3
 8002a0e:	d824      	bhi.n	8002a5a <MTMR_vSetTimerChannelOutput+0xfe>
 8002a10:	a201      	add	r2, pc, #4	; (adr r2, 8002a18 <MTMR_vSetTimerChannelOutput+0xbc>)
 8002a12:	f852 f023 	ldr.w	pc, [r2, r3, lsl #2]
 8002a16:	bf00      	nop
 8002a18:	08002a29 	.word	0x08002a29
 8002a1c:	08002a53 	.word	0x08002a53
 8002a20:	08002a53 	.word	0x08002a53
 8002a24:	08002a53 	.word	0x08002a53
					CLR_BITS(MTMR3_PERIPHERAL -> MTMRx_CCMR1, 0x00000073);
 8002a28:	4b0f      	ldr	r3, [pc, #60]	; (8002a68 <MTMR_vSetTimerChannelOutput+0x10c>)
 8002a2a:	699b      	ldr	r3, [r3, #24]
 8002a2c:	4a0e      	ldr	r2, [pc, #56]	; (8002a68 <MTMR_vSetTimerChannelOutput+0x10c>)
 8002a2e:	f023 0373 	bic.w	r3, r3, #115	; 0x73
 8002a32:	6193      	str	r3, [r2, #24]
					MTMR3_PERIPHERAL -> MTMRx_CCMR1 |= (copy_uddtTimerMode << OC1M_SHIFT);
 8002a34:	4b0c      	ldr	r3, [pc, #48]	; (8002a68 <MTMR_vSetTimerChannelOutput+0x10c>)
 8002a36:	699b      	ldr	r3, [r3, #24]
 8002a38:	79ba      	ldrb	r2, [r7, #6]
 8002a3a:	0112      	lsls	r2, r2, #4
 8002a3c:	4611      	mov	r1, r2
 8002a3e:	4a0a      	ldr	r2, [pc, #40]	; (8002a68 <MTMR_vSetTimerChannelOutput+0x10c>)
 8002a40:	430b      	orrs	r3, r1
 8002a42:	6193      	str	r3, [r2, #24]
					SET_BIT(MTMR3_PERIPHERAL -> MTMRx_CCER, CC1EN_BIT);
 8002a44:	4b08      	ldr	r3, [pc, #32]	; (8002a68 <MTMR_vSetTimerChannelOutput+0x10c>)
 8002a46:	6a1b      	ldr	r3, [r3, #32]
 8002a48:	4a07      	ldr	r2, [pc, #28]	; (8002a68 <MTMR_vSetTimerChannelOutput+0x10c>)
 8002a4a:	f043 0301 	orr.w	r3, r3, #1
 8002a4e:	6213      	str	r3, [r2, #32]
					break;
 8002a50:	e000      	b.n	8002a54 <MTMR_vSetTimerChannelOutput+0xf8>
				case MTMR_CH2: break;
 8002a52:	bf00      	nop
		default:                               break;
 8002a54:	e001      	b.n	8002a5a <MTMR_vSetTimerChannelOutput+0xfe>
			break;
 8002a56:	bf00      	nop
 8002a58:	e000      	b.n	8002a5c <MTMR_vSetTimerChannelOutput+0x100>
		default:                               break;
 8002a5a:	bf00      	nop
	}
}
 8002a5c:	bf00      	nop
 8002a5e:	370c      	adds	r7, #12
 8002a60:	46bd      	mov	sp, r7
 8002a62:	f85d 7b04 	ldr.w	r7, [sp], #4
 8002a66:	4770      	bx	lr
 8002a68:	40000400 	.word	0x40000400

08002a6c <MTMR_vSetTimerCMPVal>:

void 	 MTMR_vSetTimerCMPVal(EN_MTMR_number_t copy_uddtTMRNumber, EN_MTMR_channel_t copy_uddtChannelNumber, uint32_t copy_u32CmpValue)
{
 8002a6c:	b480      	push	{r7}
 8002a6e:	b083      	sub	sp, #12
 8002a70:	af00      	add	r7, sp, #0
 8002a72:	4603      	mov	r3, r0
 8002a74:	603a      	str	r2, [r7, #0]
 8002a76:	71fb      	strb	r3, [r7, #7]
 8002a78:	460b      	mov	r3, r1
 8002a7a:	71bb      	strb	r3, [r7, #6]
	switch(copy_uddtTMRNumber)
 8002a7c:	79fb      	ldrb	r3, [r7, #7]
 8002a7e:	2b00      	cmp	r3, #0
 8002a80:	d002      	beq.n	8002a88 <MTMR_vSetTimerCMPVal+0x1c>
 8002a82:	2b01      	cmp	r3, #1
 8002a84:	d025      	beq.n	8002ad2 <MTMR_vSetTimerCMPVal+0x66>
					break;
				}
			break;
		}

		default:                               break;
 8002a86:	e047      	b.n	8002b18 <MTMR_vSetTimerCMPVal+0xac>
				switch(copy_uddtChannelNumber)
 8002a88:	79bb      	ldrb	r3, [r7, #6]
 8002a8a:	3b01      	subs	r3, #1
 8002a8c:	2b03      	cmp	r3, #3
 8002a8e:	d840      	bhi.n	8002b12 <MTMR_vSetTimerCMPVal+0xa6>
 8002a90:	a201      	add	r2, pc, #4	; (adr r2, 8002a98 <MTMR_vSetTimerCMPVal+0x2c>)
 8002a92:	f852 f023 	ldr.w	pc, [r2, r3, lsl #2]
 8002a96:	bf00      	nop
 8002a98:	08002aa9 	.word	0x08002aa9
 8002a9c:	08002ab3 	.word	0x08002ab3
 8002aa0:	08002abd 	.word	0x08002abd
 8002aa4:	08002ac7 	.word	0x08002ac7
					MTMR2_PERIPHERAL -> MTMRx_CCR1 = copy_u32CmpValue;
 8002aa8:	f04f 4280 	mov.w	r2, #1073741824	; 0x40000000
 8002aac:	683b      	ldr	r3, [r7, #0]
 8002aae:	6353      	str	r3, [r2, #52]	; 0x34
					break;
 8002ab0:	e00e      	b.n	8002ad0 <MTMR_vSetTimerCMPVal+0x64>
					MTMR2_PERIPHERAL -> MTMRx_CCR2 = copy_u32CmpValue;
 8002ab2:	f04f 4280 	mov.w	r2, #1073741824	; 0x40000000
 8002ab6:	683b      	ldr	r3, [r7, #0]
 8002ab8:	6393      	str	r3, [r2, #56]	; 0x38
					break;
 8002aba:	e009      	b.n	8002ad0 <MTMR_vSetTimerCMPVal+0x64>
					MTMR2_PERIPHERAL -> MTMRx_CCR3 = copy_u32CmpValue;
 8002abc:	f04f 4280 	mov.w	r2, #1073741824	; 0x40000000
 8002ac0:	683b      	ldr	r3, [r7, #0]
 8002ac2:	63d3      	str	r3, [r2, #60]	; 0x3c
					break;
 8002ac4:	e004      	b.n	8002ad0 <MTMR_vSetTimerCMPVal+0x64>
					MTMR2_PERIPHERAL -> MTMRx_CCR4 = copy_u32CmpValue;
 8002ac6:	f04f 4280 	mov.w	r2, #1073741824	; 0x40000000
 8002aca:	683b      	ldr	r3, [r7, #0]
 8002acc:	6413      	str	r3, [r2, #64]	; 0x40
					break;
 8002ace:	bf00      	nop
			break;
 8002ad0:	e01f      	b.n	8002b12 <MTMR_vSetTimerCMPVal+0xa6>
				switch(copy_uddtChannelNumber)
 8002ad2:	79bb      	ldrb	r3, [r7, #6]
 8002ad4:	3b01      	subs	r3, #1
 8002ad6:	2b03      	cmp	r3, #3
 8002ad8:	d81d      	bhi.n	8002b16 <MTMR_vSetTimerCMPVal+0xaa>
 8002ada:	a201      	add	r2, pc, #4	; (adr r2, 8002ae0 <MTMR_vSetTimerCMPVal+0x74>)
 8002adc:	f852 f023 	ldr.w	pc, [r2, r3, lsl #2]
 8002ae0:	08002af1 	.word	0x08002af1
 8002ae4:	08002af9 	.word	0x08002af9
 8002ae8:	08002b01 	.word	0x08002b01
 8002aec:	08002b09 	.word	0x08002b09
					MTMR3_PERIPHERAL -> MTMRx_CCR1 = copy_u32CmpValue;
 8002af0:	4a0c      	ldr	r2, [pc, #48]	; (8002b24 <MTMR_vSetTimerCMPVal+0xb8>)
 8002af2:	683b      	ldr	r3, [r7, #0]
 8002af4:	6353      	str	r3, [r2, #52]	; 0x34
					break;
 8002af6:	e00b      	b.n	8002b10 <MTMR_vSetTimerCMPVal+0xa4>
					MTMR3_PERIPHERAL -> MTMRx_CCR2 = copy_u32CmpValue;
 8002af8:	4a0a      	ldr	r2, [pc, #40]	; (8002b24 <MTMR_vSetTimerCMPVal+0xb8>)
 8002afa:	683b      	ldr	r3, [r7, #0]
 8002afc:	6393      	str	r3, [r2, #56]	; 0x38
					break;
 8002afe:	e007      	b.n	8002b10 <MTMR_vSetTimerCMPVal+0xa4>
					MTMR3_PERIPHERAL -> MTMRx_CCR3 = copy_u32CmpValue;
 8002b00:	4a08      	ldr	r2, [pc, #32]	; (8002b24 <MTMR_vSetTimerCMPVal+0xb8>)
 8002b02:	683b      	ldr	r3, [r7, #0]
 8002b04:	63d3      	str	r3, [r2, #60]	; 0x3c
					break;
 8002b06:	e003      	b.n	8002b10 <MTMR_vSetTimerCMPVal+0xa4>
					MTMR3_PERIPHERAL -> MTMRx_CCR4 = copy_u32CmpValue;
 8002b08:	4a06      	ldr	r2, [pc, #24]	; (8002b24 <MTMR_vSetTimerCMPVal+0xb8>)
 8002b0a:	683b      	ldr	r3, [r7, #0]
 8002b0c:	6413      	str	r3, [r2, #64]	; 0x40
					break;
 8002b0e:	bf00      	nop
			break;
 8002b10:	e001      	b.n	8002b16 <MTMR_vSetTimerCMPVal+0xaa>
			break;
 8002b12:	bf00      	nop
 8002b14:	e000      	b.n	8002b18 <MTMR_vSetTimerCMPVal+0xac>
			break;
 8002b16:	bf00      	nop
	}
}
 8002b18:	bf00      	nop
 8002b1a:	370c      	adds	r7, #12
 8002b1c:	46bd      	mov	sp, r7
 8002b1e:	f85d 7b04 	ldr.w	r7, [sp], #4
 8002b22:	4770      	bx	lr
 8002b24:	40000400 	.word	0x40000400

08002b28 <MTMR_vSetTimerARR>:




void 	 MTMR_vSetTimerARR(EN_MTMR_number_t copy_uddtTMRNumber, uint32_t copy_u32Value)
{
 8002b28:	b480      	push	{r7}
 8002b2a:	b083      	sub	sp, #12
 8002b2c:	af00      	add	r7, sp, #0
 8002b2e:	4603      	mov	r3, r0
 8002b30:	6039      	str	r1, [r7, #0]
 8002b32:	71fb      	strb	r3, [r7, #7]
	switch(copy_uddtTMRNumber)
 8002b34:	79fb      	ldrb	r3, [r7, #7]
 8002b36:	2b03      	cmp	r3, #3
 8002b38:	d00f      	beq.n	8002b5a <MTMR_vSetTimerARR+0x32>
 8002b3a:	2b03      	cmp	r3, #3
 8002b3c:	dc11      	bgt.n	8002b62 <MTMR_vSetTimerARR+0x3a>
 8002b3e:	2b00      	cmp	r3, #0
 8002b40:	d002      	beq.n	8002b48 <MTMR_vSetTimerARR+0x20>
 8002b42:	2b01      	cmp	r3, #1
 8002b44:	d005      	beq.n	8002b52 <MTMR_vSetTimerARR+0x2a>
		MTMR3_PERIPHERAL -> MTMRx_ARR = copy_u32Value;
		break;
	case MTMR5:
		MTMR5_PERIPHERAL -> MTMRx_ARR = copy_u32Value;
		break;
	default:                               break;
 8002b46:	e00c      	b.n	8002b62 <MTMR_vSetTimerARR+0x3a>
		MTMR2_PERIPHERAL -> MTMRx_ARR = copy_u32Value;
 8002b48:	f04f 4280 	mov.w	r2, #1073741824	; 0x40000000
 8002b4c:	683b      	ldr	r3, [r7, #0]
 8002b4e:	62d3      	str	r3, [r2, #44]	; 0x2c
		break;
 8002b50:	e008      	b.n	8002b64 <MTMR_vSetTimerARR+0x3c>
		MTMR3_PERIPHERAL -> MTMRx_ARR = copy_u32Value;
 8002b52:	4a07      	ldr	r2, [pc, #28]	; (8002b70 <MTMR_vSetTimerARR+0x48>)
 8002b54:	683b      	ldr	r3, [r7, #0]
 8002b56:	62d3      	str	r3, [r2, #44]	; 0x2c
		break;
 8002b58:	e004      	b.n	8002b64 <MTMR_vSetTimerARR+0x3c>
		MTMR5_PERIPHERAL -> MTMRx_ARR = copy_u32Value;
 8002b5a:	4a06      	ldr	r2, [pc, #24]	; (8002b74 <MTMR_vSetTimerARR+0x4c>)
 8002b5c:	683b      	ldr	r3, [r7, #0]
 8002b5e:	62d3      	str	r3, [r2, #44]	; 0x2c
		break;
 8002b60:	e000      	b.n	8002b64 <MTMR_vSetTimerARR+0x3c>
	default:                               break;
 8002b62:	bf00      	nop
	}
}
 8002b64:	bf00      	nop
 8002b66:	370c      	adds	r7, #12
 8002b68:	46bd      	mov	sp, r7
 8002b6a:	f85d 7b04 	ldr.w	r7, [sp], #4
 8002b6e:	4770      	bx	lr
 8002b70:	40000400 	.word	0x40000400
 8002b74:	40000c00 	.word	0x40000c00

08002b78 <MUSART_uddtInit>:
static void (*MUSART1_CallBack)(void) = PTR_NULL;
static void (*MUSART2_CallBack)(void) = PTR_NULL;
static void (*MUSART6_CallBack)(void) = PTR_NULL;

EN_MUSART_systeamState_t MUSART_uddtInit(ST_MUART_RegistersMap_t *PS_USARTx , ST_MUSART_cfg_t const *PS_uddtUartCfg)
{
 8002b78:	b590      	push	{r4, r7, lr}
 8002b7a:	b085      	sub	sp, #20
 8002b7c:	af00      	add	r7, sp, #0
 8002b7e:	6078      	str	r0, [r7, #4]
 8002b80:	6039      	str	r1, [r7, #0]
	EN_MUSART_systeamState_t ret = MUSART_NOK;
 8002b82:	2300      	movs	r3, #0
 8002b84:	73fb      	strb	r3, [r7, #15]
	if(PS_uddtUartCfg != PTR_NULL && PS_USARTx != PTR_NULL)
 8002b86:	683b      	ldr	r3, [r7, #0]
 8002b88:	2b00      	cmp	r3, #0
 8002b8a:	f000 8145 	beq.w	8002e18 <MUSART_uddtInit+0x2a0>
 8002b8e:	687b      	ldr	r3, [r7, #4]
 8002b90:	2b00      	cmp	r3, #0
 8002b92:	f000 8141 	beq.w	8002e18 <MUSART_uddtInit+0x2a0>
	{
		switch (PS_uddtUartCfg->copy_uddtSamplingModeOption)
 8002b96:	683b      	ldr	r3, [r7, #0]
 8002b98:	785b      	ldrb	r3, [r3, #1]
 8002b9a:	2b00      	cmp	r3, #0
 8002b9c:	d002      	beq.n	8002ba4 <MUSART_uddtInit+0x2c>
 8002b9e:	2b01      	cmp	r3, #1
 8002ba0:	d072      	beq.n	8002c88 <MUSART_uddtInit+0x110>
 8002ba2:	e0e1      	b.n	8002d68 <MUSART_uddtInit+0x1f0>
		{
			case MUSART_SAMPLING_BY_16 : PS_USARTx->MUSART_BRR = UART_BRR_SAMPLING16(__PCLK__,PS_uddtUartCfg->copy_uddtBuadRateOption); break;
 8002ba4:	683b      	ldr	r3, [r7, #0]
 8002ba6:	685b      	ldr	r3, [r3, #4]
 8002ba8:	4618      	mov	r0, r3
 8002baa:	f7fd fc57 	bl	800045c <__aeabi_ui2d>
 8002bae:	f04f 0200 	mov.w	r2, #0
 8002bb2:	4b9f      	ldr	r3, [pc, #636]	; (8002e30 <MUSART_uddtInit+0x2b8>)
 8002bb4:	f7fd fccc 	bl	8000550 <__aeabi_dmul>
 8002bb8:	4602      	mov	r2, r0
 8002bba:	460b      	mov	r3, r1
 8002bbc:	a19a      	add	r1, pc, #616	; (adr r1, 8002e28 <MUSART_uddtInit+0x2b0>)
 8002bbe:	e9d1 0100 	ldrd	r0, r1, [r1]
 8002bc2:	f7fd fdef 	bl	80007a4 <__aeabi_ddiv>
 8002bc6:	4602      	mov	r2, r0
 8002bc8:	460b      	mov	r3, r1
 8002bca:	4610      	mov	r0, r2
 8002bcc:	4619      	mov	r1, r3
 8002bce:	f7fd fed1 	bl	8000974 <__aeabi_d2uiz>
 8002bd2:	4603      	mov	r3, r0
 8002bd4:	4a97      	ldr	r2, [pc, #604]	; (8002e34 <MUSART_uddtInit+0x2bc>)
 8002bd6:	fba2 2303 	umull	r2, r3, r2, r3
 8002bda:	095b      	lsrs	r3, r3, #5
 8002bdc:	011c      	lsls	r4, r3, #4
 8002bde:	683b      	ldr	r3, [r7, #0]
 8002be0:	685b      	ldr	r3, [r3, #4]
 8002be2:	4618      	mov	r0, r3
 8002be4:	f7fd fc3a 	bl	800045c <__aeabi_ui2d>
 8002be8:	f04f 0200 	mov.w	r2, #0
 8002bec:	4b90      	ldr	r3, [pc, #576]	; (8002e30 <MUSART_uddtInit+0x2b8>)
 8002bee:	f7fd fcaf 	bl	8000550 <__aeabi_dmul>
 8002bf2:	4602      	mov	r2, r0
 8002bf4:	460b      	mov	r3, r1
 8002bf6:	a18c      	add	r1, pc, #560	; (adr r1, 8002e28 <MUSART_uddtInit+0x2b0>)
 8002bf8:	e9d1 0100 	ldrd	r0, r1, [r1]
 8002bfc:	f7fd fdd2 	bl	80007a4 <__aeabi_ddiv>
 8002c00:	4602      	mov	r2, r0
 8002c02:	460b      	mov	r3, r1
 8002c04:	4610      	mov	r0, r2
 8002c06:	4619      	mov	r1, r3
 8002c08:	f7fd feb4 	bl	8000974 <__aeabi_d2uiz>
 8002c0c:	4602      	mov	r2, r0
 8002c0e:	4b89      	ldr	r3, [pc, #548]	; (8002e34 <MUSART_uddtInit+0x2bc>)
 8002c10:	fba3 1302 	umull	r1, r3, r3, r2
 8002c14:	095b      	lsrs	r3, r3, #5
 8002c16:	2164      	movs	r1, #100	; 0x64
 8002c18:	fb01 f303 	mul.w	r3, r1, r3
 8002c1c:	1ad3      	subs	r3, r2, r3
 8002c1e:	011b      	lsls	r3, r3, #4
 8002c20:	3332      	adds	r3, #50	; 0x32
 8002c22:	4a84      	ldr	r2, [pc, #528]	; (8002e34 <MUSART_uddtInit+0x2bc>)
 8002c24:	fba2 2303 	umull	r2, r3, r2, r3
 8002c28:	095b      	lsrs	r3, r3, #5
 8002c2a:	f003 03f0 	and.w	r3, r3, #240	; 0xf0
 8002c2e:	441c      	add	r4, r3
 8002c30:	683b      	ldr	r3, [r7, #0]
 8002c32:	685b      	ldr	r3, [r3, #4]
 8002c34:	4618      	mov	r0, r3
 8002c36:	f7fd fc11 	bl	800045c <__aeabi_ui2d>
 8002c3a:	f04f 0200 	mov.w	r2, #0
 8002c3e:	4b7c      	ldr	r3, [pc, #496]	; (8002e30 <MUSART_uddtInit+0x2b8>)
 8002c40:	f7fd fc86 	bl	8000550 <__aeabi_dmul>
 8002c44:	4602      	mov	r2, r0
 8002c46:	460b      	mov	r3, r1
 8002c48:	a177      	add	r1, pc, #476	; (adr r1, 8002e28 <MUSART_uddtInit+0x2b0>)
 8002c4a:	e9d1 0100 	ldrd	r0, r1, [r1]
 8002c4e:	f7fd fda9 	bl	80007a4 <__aeabi_ddiv>
 8002c52:	4602      	mov	r2, r0
 8002c54:	460b      	mov	r3, r1
 8002c56:	4610      	mov	r0, r2
 8002c58:	4619      	mov	r1, r3
 8002c5a:	f7fd fe8b 	bl	8000974 <__aeabi_d2uiz>
 8002c5e:	4602      	mov	r2, r0
 8002c60:	4b74      	ldr	r3, [pc, #464]	; (8002e34 <MUSART_uddtInit+0x2bc>)
 8002c62:	fba3 1302 	umull	r1, r3, r3, r2
 8002c66:	095b      	lsrs	r3, r3, #5
 8002c68:	2164      	movs	r1, #100	; 0x64
 8002c6a:	fb01 f303 	mul.w	r3, r1, r3
 8002c6e:	1ad3      	subs	r3, r2, r3
 8002c70:	011b      	lsls	r3, r3, #4
 8002c72:	3332      	adds	r3, #50	; 0x32
 8002c74:	4a6f      	ldr	r2, [pc, #444]	; (8002e34 <MUSART_uddtInit+0x2bc>)
 8002c76:	fba2 2303 	umull	r2, r3, r2, r3
 8002c7a:	095b      	lsrs	r3, r3, #5
 8002c7c:	f003 030f 	and.w	r3, r3, #15
 8002c80:	18e2      	adds	r2, r4, r3
 8002c82:	687b      	ldr	r3, [r7, #4]
 8002c84:	609a      	str	r2, [r3, #8]
 8002c86:	e06f      	b.n	8002d68 <MUSART_uddtInit+0x1f0>
			case MUSART_SAMPLING_BY_8  : PS_USARTx->MUSART_BRR = UART_BRR_SAMPLING8(__PCLK__,PS_uddtUartCfg->copy_uddtBuadRateOption); break;
 8002c88:	683b      	ldr	r3, [r7, #0]
 8002c8a:	685b      	ldr	r3, [r3, #4]
 8002c8c:	4618      	mov	r0, r3
 8002c8e:	f7fd fbe5 	bl	800045c <__aeabi_ui2d>
 8002c92:	4602      	mov	r2, r0
 8002c94:	460b      	mov	r3, r1
 8002c96:	f7fd faa5 	bl	80001e4 <__adddf3>
 8002c9a:	4602      	mov	r2, r0
 8002c9c:	460b      	mov	r3, r1
 8002c9e:	a162      	add	r1, pc, #392	; (adr r1, 8002e28 <MUSART_uddtInit+0x2b0>)
 8002ca0:	e9d1 0100 	ldrd	r0, r1, [r1]
 8002ca4:	f7fd fd7e 	bl	80007a4 <__aeabi_ddiv>
 8002ca8:	4602      	mov	r2, r0
 8002caa:	460b      	mov	r3, r1
 8002cac:	4610      	mov	r0, r2
 8002cae:	4619      	mov	r1, r3
 8002cb0:	f7fd fe60 	bl	8000974 <__aeabi_d2uiz>
 8002cb4:	4603      	mov	r3, r0
 8002cb6:	4a5f      	ldr	r2, [pc, #380]	; (8002e34 <MUSART_uddtInit+0x2bc>)
 8002cb8:	fba2 2303 	umull	r2, r3, r2, r3
 8002cbc:	095b      	lsrs	r3, r3, #5
 8002cbe:	011c      	lsls	r4, r3, #4
 8002cc0:	683b      	ldr	r3, [r7, #0]
 8002cc2:	685b      	ldr	r3, [r3, #4]
 8002cc4:	4618      	mov	r0, r3
 8002cc6:	f7fd fbc9 	bl	800045c <__aeabi_ui2d>
 8002cca:	4602      	mov	r2, r0
 8002ccc:	460b      	mov	r3, r1
 8002cce:	f7fd fa89 	bl	80001e4 <__adddf3>
 8002cd2:	4602      	mov	r2, r0
 8002cd4:	460b      	mov	r3, r1
 8002cd6:	a154      	add	r1, pc, #336	; (adr r1, 8002e28 <MUSART_uddtInit+0x2b0>)
 8002cd8:	e9d1 0100 	ldrd	r0, r1, [r1]
 8002cdc:	f7fd fd62 	bl	80007a4 <__aeabi_ddiv>
 8002ce0:	4602      	mov	r2, r0
 8002ce2:	460b      	mov	r3, r1
 8002ce4:	4610      	mov	r0, r2
 8002ce6:	4619      	mov	r1, r3
 8002ce8:	f7fd fe44 	bl	8000974 <__aeabi_d2uiz>
 8002cec:	4602      	mov	r2, r0
 8002cee:	4b51      	ldr	r3, [pc, #324]	; (8002e34 <MUSART_uddtInit+0x2bc>)
 8002cf0:	fba3 1302 	umull	r1, r3, r3, r2
 8002cf4:	095b      	lsrs	r3, r3, #5
 8002cf6:	2164      	movs	r1, #100	; 0x64
 8002cf8:	fb01 f303 	mul.w	r3, r1, r3
 8002cfc:	1ad3      	subs	r3, r2, r3
 8002cfe:	00db      	lsls	r3, r3, #3
 8002d00:	3332      	adds	r3, #50	; 0x32
 8002d02:	4a4c      	ldr	r2, [pc, #304]	; (8002e34 <MUSART_uddtInit+0x2bc>)
 8002d04:	fba2 2303 	umull	r2, r3, r2, r3
 8002d08:	095b      	lsrs	r3, r3, #5
 8002d0a:	005b      	lsls	r3, r3, #1
 8002d0c:	f403 73f8 	and.w	r3, r3, #496	; 0x1f0
 8002d10:	441c      	add	r4, r3
 8002d12:	683b      	ldr	r3, [r7, #0]
 8002d14:	685b      	ldr	r3, [r3, #4]
 8002d16:	4618      	mov	r0, r3
 8002d18:	f7fd fba0 	bl	800045c <__aeabi_ui2d>
 8002d1c:	4602      	mov	r2, r0
 8002d1e:	460b      	mov	r3, r1
 8002d20:	f7fd fa60 	bl	80001e4 <__adddf3>
 8002d24:	4602      	mov	r2, r0
 8002d26:	460b      	mov	r3, r1
 8002d28:	a13f      	add	r1, pc, #252	; (adr r1, 8002e28 <MUSART_uddtInit+0x2b0>)
 8002d2a:	e9d1 0100 	ldrd	r0, r1, [r1]
 8002d2e:	f7fd fd39 	bl	80007a4 <__aeabi_ddiv>
 8002d32:	4602      	mov	r2, r0
 8002d34:	460b      	mov	r3, r1
 8002d36:	4610      	mov	r0, r2
 8002d38:	4619      	mov	r1, r3
 8002d3a:	f7fd fe1b 	bl	8000974 <__aeabi_d2uiz>
 8002d3e:	4602      	mov	r2, r0
 8002d40:	4b3c      	ldr	r3, [pc, #240]	; (8002e34 <MUSART_uddtInit+0x2bc>)
 8002d42:	fba3 1302 	umull	r1, r3, r3, r2
 8002d46:	095b      	lsrs	r3, r3, #5
 8002d48:	2164      	movs	r1, #100	; 0x64
 8002d4a:	fb01 f303 	mul.w	r3, r1, r3
 8002d4e:	1ad3      	subs	r3, r2, r3
 8002d50:	00db      	lsls	r3, r3, #3
 8002d52:	3332      	adds	r3, #50	; 0x32
 8002d54:	4a37      	ldr	r2, [pc, #220]	; (8002e34 <MUSART_uddtInit+0x2bc>)
 8002d56:	fba2 2303 	umull	r2, r3, r2, r3
 8002d5a:	095b      	lsrs	r3, r3, #5
 8002d5c:	f003 0307 	and.w	r3, r3, #7
 8002d60:	18e2      	adds	r2, r4, r3
 8002d62:	687b      	ldr	r3, [r7, #4]
 8002d64:	609a      	str	r2, [r3, #8]
 8002d66:	bf00      	nop
		}

		PS_USARTx->MUSART_CR1 =  (PS_uddtUartCfg->copy_uddtSamplingModeOption << MUSART_CR1_OVER8_BIT)  |
 8002d68:	683b      	ldr	r3, [r7, #0]
 8002d6a:	785b      	ldrb	r3, [r3, #1]
 8002d6c:	03da      	lsls	r2, r3, #15
					      	  	 (PS_uddtUartCfg->copy_HardwareFlowControl<<MUSART_CR1_UE_BIT)          |
 8002d6e:	683b      	ldr	r3, [r7, #0]
 8002d70:	7b1b      	ldrb	r3, [r3, #12]
 8002d72:	035b      	lsls	r3, r3, #13
		PS_USARTx->MUSART_CR1 =  (PS_uddtUartCfg->copy_uddtSamplingModeOption << MUSART_CR1_OVER8_BIT)  |
 8002d74:	431a      	orrs	r2, r3
								 (PS_uddtUartCfg->copy_uddtDataSizeOption <<MUSART_CR1_M_BIT)           |
 8002d76:	683b      	ldr	r3, [r7, #0]
 8002d78:	7a1b      	ldrb	r3, [r3, #8]
 8002d7a:	031b      	lsls	r3, r3, #12
					      	  	 (PS_uddtUartCfg->copy_HardwareFlowControl<<MUSART_CR1_UE_BIT)          |
 8002d7c:	431a      	orrs	r2, r3
								 (PS_uddtUartCfg->copy_uddtParityControl <<MUSART_CR1_PCE_BIT)     		|
 8002d7e:	683b      	ldr	r3, [r7, #0]
 8002d80:	7a5b      	ldrb	r3, [r3, #9]
 8002d82:	029b      	lsls	r3, r3, #10
								 (PS_uddtUartCfg->copy_uddtDataSizeOption <<MUSART_CR1_M_BIT)           |
 8002d84:	431a      	orrs	r2, r3
								 (PS_uddtUartCfg->copy_uddtParitySelection <<MUSART_CR1_PS_BIT)    		;
 8002d86:	683b      	ldr	r3, [r7, #0]
 8002d88:	7a9b      	ldrb	r3, [r3, #10]
 8002d8a:	025b      	lsls	r3, r3, #9
								 (PS_uddtUartCfg->copy_uddtParityControl <<MUSART_CR1_PCE_BIT)     		|
 8002d8c:	4313      	orrs	r3, r2
 8002d8e:	461a      	mov	r2, r3
		PS_USARTx->MUSART_CR1 =  (PS_uddtUartCfg->copy_uddtSamplingModeOption << MUSART_CR1_OVER8_BIT)  |
 8002d90:	687b      	ldr	r3, [r7, #4]
 8002d92:	60da      	str	r2, [r3, #12]

		switch (PS_uddtUartCfg->copy_uddtTransferDirection)
 8002d94:	683b      	ldr	r3, [r7, #0]
 8002d96:	781b      	ldrb	r3, [r3, #0]
 8002d98:	2b02      	cmp	r3, #2
 8002d9a:	d014      	beq.n	8002dc6 <MUSART_uddtInit+0x24e>
 8002d9c:	2b02      	cmp	r3, #2
 8002d9e:	dc1f      	bgt.n	8002de0 <MUSART_uddtInit+0x268>
 8002da0:	2b00      	cmp	r3, #0
 8002da2:	d002      	beq.n	8002daa <MUSART_uddtInit+0x232>
 8002da4:	2b01      	cmp	r3, #1
 8002da6:	d007      	beq.n	8002db8 <MUSART_uddtInit+0x240>
 8002da8:	e01a      	b.n	8002de0 <MUSART_uddtInit+0x268>
		{
			case MUSART_TX_ONLY:   SET_BIT(PS_USARTx->MUSART_CR1, MUSART_CR1_TE_BIT); break;
 8002daa:	687b      	ldr	r3, [r7, #4]
 8002dac:	68db      	ldr	r3, [r3, #12]
 8002dae:	f043 0208 	orr.w	r2, r3, #8
 8002db2:	687b      	ldr	r3, [r7, #4]
 8002db4:	60da      	str	r2, [r3, #12]
 8002db6:	e013      	b.n	8002de0 <MUSART_uddtInit+0x268>
			case MUSART_RX_ONLY:   SET_BIT(PS_USARTx->MUSART_CR1, MUSART_CR1_RE_BIT); break;
 8002db8:	687b      	ldr	r3, [r7, #4]
 8002dba:	68db      	ldr	r3, [r3, #12]
 8002dbc:	f043 0204 	orr.w	r2, r3, #4
 8002dc0:	687b      	ldr	r3, [r7, #4]
 8002dc2:	60da      	str	r2, [r3, #12]
 8002dc4:	e00c      	b.n	8002de0 <MUSART_uddtInit+0x268>
			case MUSART_TX_RX  :   SET_BIT(PS_USARTx->MUSART_CR1, MUSART_CR1_TE_BIT);
 8002dc6:	687b      	ldr	r3, [r7, #4]
 8002dc8:	68db      	ldr	r3, [r3, #12]
 8002dca:	f043 0208 	orr.w	r2, r3, #8
 8002dce:	687b      	ldr	r3, [r7, #4]
 8002dd0:	60da      	str	r2, [r3, #12]
						  	  	   SET_BIT(PS_USARTx->MUSART_CR1, MUSART_CR1_RE_BIT); break;
 8002dd2:	687b      	ldr	r3, [r7, #4]
 8002dd4:	68db      	ldr	r3, [r3, #12]
 8002dd6:	f043 0204 	orr.w	r2, r3, #4
 8002dda:	687b      	ldr	r3, [r7, #4]
 8002ddc:	60da      	str	r2, [r3, #12]
 8002dde:	bf00      	nop
		}
		PS_USARTx->MUSART_CR2 = (PS_uddtUartCfg->copy_uddtStopBitSelection<<MUSART_CR2_STOP_BIT)				  |
 8002de0:	683b      	ldr	r3, [r7, #0]
 8002de2:	7adb      	ldrb	r3, [r3, #11]
 8002de4:	031a      	lsls	r2, r3, #12
								(PS_uddtUartCfg->copy_uddtUartClockInit.clockOutput <<MUSART_CR2_CLKEN_BIT)       |
 8002de6:	683b      	ldr	r3, [r7, #0]
 8002de8:	7b5b      	ldrb	r3, [r3, #13]
 8002dea:	02db      	lsls	r3, r3, #11
		PS_USARTx->MUSART_CR2 = (PS_uddtUartCfg->copy_uddtStopBitSelection<<MUSART_CR2_STOP_BIT)				  |
 8002dec:	431a      	orrs	r2, r3
								(PS_uddtUartCfg->copy_uddtUartClockInit.clockPhase <<MUSART_CR2_CPHA_BIT)         |
 8002dee:	683b      	ldr	r3, [r7, #0]
 8002df0:	7bdb      	ldrb	r3, [r3, #15]
 8002df2:	025b      	lsls	r3, r3, #9
								(PS_uddtUartCfg->copy_uddtUartClockInit.clockOutput <<MUSART_CR2_CLKEN_BIT)       |
 8002df4:	431a      	orrs	r2, r3
								(PS_uddtUartCfg->copy_uddtUartClockInit.clockPolarity <<MUSART_CR2_CPOL_BIT)      |
 8002df6:	683b      	ldr	r3, [r7, #0]
 8002df8:	7b9b      	ldrb	r3, [r3, #14]
 8002dfa:	029b      	lsls	r3, r3, #10
								(PS_uddtUartCfg->copy_uddtUartClockInit.clockPhase <<MUSART_CR2_CPHA_BIT)         |
 8002dfc:	431a      	orrs	r2, r3
								(PS_uddtUartCfg->copy_uddtUartClockInit.lastBitClockPulse <<MUSART_CR2_LBCL_BIT)  ;
 8002dfe:	683b      	ldr	r3, [r7, #0]
 8002e00:	7c1b      	ldrb	r3, [r3, #16]
 8002e02:	021b      	lsls	r3, r3, #8
								(PS_uddtUartCfg->copy_uddtUartClockInit.clockPolarity <<MUSART_CR2_CPOL_BIT)      |
 8002e04:	4313      	orrs	r3, r2
 8002e06:	461a      	mov	r2, r3
		PS_USARTx->MUSART_CR2 = (PS_uddtUartCfg->copy_uddtStopBitSelection<<MUSART_CR2_STOP_BIT)				  |
 8002e08:	687b      	ldr	r3, [r7, #4]
 8002e0a:	611a      	str	r2, [r3, #16]

		PS_USARTx->MUSART_SR = 0																                  ;
 8002e0c:	687b      	ldr	r3, [r7, #4]
 8002e0e:	2200      	movs	r2, #0
 8002e10:	601a      	str	r2, [r3, #0]

		ret = MUSART_OK;
 8002e12:	2301      	movs	r3, #1
 8002e14:	73fb      	strb	r3, [r7, #15]
 8002e16:	e001      	b.n	8002e1c <MUSART_uddtInit+0x2a4>
	}
	else
	{
		ret = MUSART_PTR_NULL;
 8002e18:	2302      	movs	r3, #2
 8002e1a:	73fb      	strb	r3, [r7, #15]
	}

	return ret;
 8002e1c:	7bfb      	ldrb	r3, [r7, #15]
}
 8002e1e:	4618      	mov	r0, r3
 8002e20:	3714      	adds	r7, #20
 8002e22:	46bd      	mov	sp, r7
 8002e24:	bd90      	pop	{r4, r7, pc}
 8002e26:	bf00      	nop
 8002e28:	00000000 	.word	0x00000000
 8002e2c:	41a7d784 	.word	0x41a7d784
 8002e30:	40100000 	.word	0x40100000
 8002e34:	51eb851f 	.word	0x51eb851f

08002e38 <MUSART_uddtEnable>:



EN_MUSART_systeamState_t MUSART_uddtEnable(ST_MUART_RegistersMap_t *PS_USARTx)
{
 8002e38:	b480      	push	{r7}
 8002e3a:	b085      	sub	sp, #20
 8002e3c:	af00      	add	r7, sp, #0
 8002e3e:	6078      	str	r0, [r7, #4]
	EN_MUSART_systeamState_t ret = MUSART_NOK;
 8002e40:	2300      	movs	r3, #0
 8002e42:	73fb      	strb	r3, [r7, #15]

	if(PS_USARTx != PTR_NULL)
 8002e44:	687b      	ldr	r3, [r7, #4]
 8002e46:	2b00      	cmp	r3, #0
 8002e48:	d008      	beq.n	8002e5c <MUSART_uddtEnable+0x24>
	{
		SET_BIT(PS_USARTx->MUSART_CR1,MUSART_CR1_UE_BIT);
 8002e4a:	687b      	ldr	r3, [r7, #4]
 8002e4c:	68db      	ldr	r3, [r3, #12]
 8002e4e:	f443 5200 	orr.w	r2, r3, #8192	; 0x2000
 8002e52:	687b      	ldr	r3, [r7, #4]
 8002e54:	60da      	str	r2, [r3, #12]
		ret = MUSART_OK;
 8002e56:	2301      	movs	r3, #1
 8002e58:	73fb      	strb	r3, [r7, #15]
 8002e5a:	e001      	b.n	8002e60 <MUSART_uddtEnable+0x28>
	}
	else
	{
		ret = MUSART_PTR_NULL;
 8002e5c:	2302      	movs	r3, #2
 8002e5e:	73fb      	strb	r3, [r7, #15]
	}

	return ret;
 8002e60:	7bfb      	ldrb	r3, [r7, #15]
}
 8002e62:	4618      	mov	r0, r3
 8002e64:	3714      	adds	r7, #20
 8002e66:	46bd      	mov	sp, r7
 8002e68:	f85d 7b04 	ldr.w	r7, [sp], #4
 8002e6c:	4770      	bx	lr

08002e6e <MUSART_uddtTransmitByte>:

	return ret;
}

EN_MUSART_systeamState_t MUSART_uddtTransmitByte(ST_MUART_RegistersMap_t *PS_USARTx , uint8_t copy_u8ByteToSend)
{
 8002e6e:	b480      	push	{r7}
 8002e70:	b085      	sub	sp, #20
 8002e72:	af00      	add	r7, sp, #0
 8002e74:	6078      	str	r0, [r7, #4]
 8002e76:	460b      	mov	r3, r1
 8002e78:	70fb      	strb	r3, [r7, #3]
	EN_MUSART_systeamState_t ret = MUSART_NOK;
 8002e7a:	2300      	movs	r3, #0
 8002e7c:	73fb      	strb	r3, [r7, #15]

	if(PS_USARTx != PTR_NULL)
 8002e7e:	687b      	ldr	r3, [r7, #4]
 8002e80:	2b00      	cmp	r3, #0
 8002e82:	d01b      	beq.n	8002ebc <MUSART_uddtTransmitByte+0x4e>
	{
		while (GET_BIT(PS_USARTx->MUSART_SR,MUSART_SR_TXE_BIT)==0);
 8002e84:	bf00      	nop
 8002e86:	687b      	ldr	r3, [r7, #4]
 8002e88:	681b      	ldr	r3, [r3, #0]
 8002e8a:	09db      	lsrs	r3, r3, #7
 8002e8c:	f003 0301 	and.w	r3, r3, #1
 8002e90:	2b00      	cmp	r3, #0
 8002e92:	d0f8      	beq.n	8002e86 <MUSART_uddtTransmitByte+0x18>
		PS_USARTx->MUSART_DR = copy_u8ByteToSend;
 8002e94:	78fa      	ldrb	r2, [r7, #3]
 8002e96:	687b      	ldr	r3, [r7, #4]
 8002e98:	605a      	str	r2, [r3, #4]
		while (GET_BIT(PS_USARTx->MUSART_SR,MUSART_SR_TC_BIT)==0);
 8002e9a:	bf00      	nop
 8002e9c:	687b      	ldr	r3, [r7, #4]
 8002e9e:	681b      	ldr	r3, [r3, #0]
 8002ea0:	099b      	lsrs	r3, r3, #6
 8002ea2:	f003 0301 	and.w	r3, r3, #1
 8002ea6:	2b00      	cmp	r3, #0
 8002ea8:	d0f8      	beq.n	8002e9c <MUSART_uddtTransmitByte+0x2e>
		CLR_BIT(PS_USARTx->MUSART_SR,MUSART_SR_TC_BIT);
 8002eaa:	687b      	ldr	r3, [r7, #4]
 8002eac:	681b      	ldr	r3, [r3, #0]
 8002eae:	f023 0240 	bic.w	r2, r3, #64	; 0x40
 8002eb2:	687b      	ldr	r3, [r7, #4]
 8002eb4:	601a      	str	r2, [r3, #0]
		ret = MUSART_OK;
 8002eb6:	2301      	movs	r3, #1
 8002eb8:	73fb      	strb	r3, [r7, #15]
 8002eba:	e001      	b.n	8002ec0 <MUSART_uddtTransmitByte+0x52>
	}
	else
	{
		ret = MUSART_PTR_NULL;
 8002ebc:	2302      	movs	r3, #2
 8002ebe:	73fb      	strb	r3, [r7, #15]
	}

	return ret;
 8002ec0:	7bfb      	ldrb	r3, [r7, #15]
}
 8002ec2:	4618      	mov	r0, r3
 8002ec4:	3714      	adds	r7, #20
 8002ec6:	46bd      	mov	sp, r7
 8002ec8:	f85d 7b04 	ldr.w	r7, [sp], #4
 8002ecc:	4770      	bx	lr

08002ece <MUSART_uddtTransmitString>:

EN_MUSART_systeamState_t MUSART_uddtTransmitString(ST_MUART_RegistersMap_t *PS_USARTx , uint8_t *copy_u8StringToSend)
{
 8002ece:	b580      	push	{r7, lr}
 8002ed0:	b084      	sub	sp, #16
 8002ed2:	af00      	add	r7, sp, #0
 8002ed4:	6078      	str	r0, [r7, #4]
 8002ed6:	6039      	str	r1, [r7, #0]
	EN_MUSART_systeamState_t ret = MUSART_NOK;
 8002ed8:	2300      	movs	r3, #0
 8002eda:	73fb      	strb	r3, [r7, #15]

	if(PS_USARTx != PTR_NULL && copy_u8StringToSend != PTR_NULL)
 8002edc:	687b      	ldr	r3, [r7, #4]
 8002ede:	2b00      	cmp	r3, #0
 8002ee0:	d019      	beq.n	8002f16 <MUSART_uddtTransmitString+0x48>
 8002ee2:	683b      	ldr	r3, [r7, #0]
 8002ee4:	2b00      	cmp	r3, #0
 8002ee6:	d016      	beq.n	8002f16 <MUSART_uddtTransmitString+0x48>
	{
		uint32_t loc_u32Iterator = 0;
 8002ee8:	2300      	movs	r3, #0
 8002eea:	60bb      	str	r3, [r7, #8]
		while (copy_u8StringToSend[loc_u32Iterator] != STR_NULL)
 8002eec:	e00a      	b.n	8002f04 <MUSART_uddtTransmitString+0x36>
		{
			MUSART_uddtTransmitByte(PS_USARTx, copy_u8StringToSend[loc_u32Iterator]);
 8002eee:	683a      	ldr	r2, [r7, #0]
 8002ef0:	68bb      	ldr	r3, [r7, #8]
 8002ef2:	4413      	add	r3, r2
 8002ef4:	781b      	ldrb	r3, [r3, #0]
 8002ef6:	4619      	mov	r1, r3
 8002ef8:	6878      	ldr	r0, [r7, #4]
 8002efa:	f7ff ffb8 	bl	8002e6e <MUSART_uddtTransmitByte>
			loc_u32Iterator++;
 8002efe:	68bb      	ldr	r3, [r7, #8]
 8002f00:	3301      	adds	r3, #1
 8002f02:	60bb      	str	r3, [r7, #8]
		while (copy_u8StringToSend[loc_u32Iterator] != STR_NULL)
 8002f04:	683a      	ldr	r2, [r7, #0]
 8002f06:	68bb      	ldr	r3, [r7, #8]
 8002f08:	4413      	add	r3, r2
 8002f0a:	781b      	ldrb	r3, [r3, #0]
 8002f0c:	2b00      	cmp	r3, #0
 8002f0e:	d1ee      	bne.n	8002eee <MUSART_uddtTransmitString+0x20>
		}
		ret = MUSART_OK;
 8002f10:	2301      	movs	r3, #1
 8002f12:	73fb      	strb	r3, [r7, #15]
	{
 8002f14:	e001      	b.n	8002f1a <MUSART_uddtTransmitString+0x4c>
	}
	else
	{
		ret = MUSART_PTR_NULL;
 8002f16:	2302      	movs	r3, #2
 8002f18:	73fb      	strb	r3, [r7, #15]
	}

	return ret;
 8002f1a:	7bfb      	ldrb	r3, [r7, #15]
}
 8002f1c:	4618      	mov	r0, r3
 8002f1e:	3710      	adds	r7, #16
 8002f20:	46bd      	mov	sp, r7
 8002f22:	bd80      	pop	{r7, pc}

08002f24 <MUSART_RxIntSetStatus>:
	return ret;
}


EN_MUSART_systeamState_t MUSART_RxIntSetStatus(ST_MUART_RegistersMap_t *PS_USARTx, uint8_t copy_u8Status)
{
 8002f24:	b480      	push	{r7}
 8002f26:	b085      	sub	sp, #20
 8002f28:	af00      	add	r7, sp, #0
 8002f2a:	6078      	str	r0, [r7, #4]
 8002f2c:	460b      	mov	r3, r1
 8002f2e:	70fb      	strb	r3, [r7, #3]
	EN_MUSART_systeamState_t ret = MUSART_NOK;
 8002f30:	2300      	movs	r3, #0
 8002f32:	73fb      	strb	r3, [r7, #15]

	if(PS_USARTx != PTR_NULL)
 8002f34:	687b      	ldr	r3, [r7, #4]
 8002f36:	2b00      	cmp	r3, #0
 8002f38:	d015      	beq.n	8002f66 <MUSART_RxIntSetStatus+0x42>
	{
		switch (copy_u8Status)
 8002f3a:	78fb      	ldrb	r3, [r7, #3]
 8002f3c:	2b00      	cmp	r3, #0
 8002f3e:	d008      	beq.n	8002f52 <MUSART_RxIntSetStatus+0x2e>
 8002f40:	2b01      	cmp	r3, #1
 8002f42:	d10d      	bne.n	8002f60 <MUSART_RxIntSetStatus+0x3c>
		{
			case MUSART_ENABLE:  SET_BIT(PS_USARTx->MUSART_CR1 ,(MUSART_CR1_RXNEIE_BIT)); break;
 8002f44:	687b      	ldr	r3, [r7, #4]
 8002f46:	68db      	ldr	r3, [r3, #12]
 8002f48:	f043 0220 	orr.w	r2, r3, #32
 8002f4c:	687b      	ldr	r3, [r7, #4]
 8002f4e:	60da      	str	r2, [r3, #12]
 8002f50:	e006      	b.n	8002f60 <MUSART_RxIntSetStatus+0x3c>
			case MUSART_DISABLE: CLR_BIT(PS_USARTx->MUSART_CR1 ,(MUSART_CR1_RXNEIE_BIT)); break;
 8002f52:	687b      	ldr	r3, [r7, #4]
 8002f54:	68db      	ldr	r3, [r3, #12]
 8002f56:	f023 0220 	bic.w	r2, r3, #32
 8002f5a:	687b      	ldr	r3, [r7, #4]
 8002f5c:	60da      	str	r2, [r3, #12]
 8002f5e:	bf00      	nop
		}
		ret = MUSART_OK;
 8002f60:	2301      	movs	r3, #1
 8002f62:	73fb      	strb	r3, [r7, #15]
 8002f64:	e001      	b.n	8002f6a <MUSART_RxIntSetStatus+0x46>
	}
	else
	{
		ret = MUSART_PTR_NULL;
 8002f66:	2302      	movs	r3, #2
 8002f68:	73fb      	strb	r3, [r7, #15]
	}

	return ret;
 8002f6a:	7bfb      	ldrb	r3, [r7, #15]
}
 8002f6c:	4618      	mov	r0, r3
 8002f6e:	3714      	adds	r7, #20
 8002f70:	46bd      	mov	sp, r7
 8002f72:	f85d 7b04 	ldr.w	r7, [sp], #4
 8002f76:	4770      	bx	lr

08002f78 <MUSART1_uddtSetCallBack>:



EN_MUSART_systeamState_t MUSART1_uddtSetCallBack( void (*ptr) (void) )
{
 8002f78:	b480      	push	{r7}
 8002f7a:	b085      	sub	sp, #20
 8002f7c:	af00      	add	r7, sp, #0
 8002f7e:	6078      	str	r0, [r7, #4]
	EN_MUSART_systeamState_t ret = MUSART_NOK;
 8002f80:	2300      	movs	r3, #0
 8002f82:	73fb      	strb	r3, [r7, #15]

	if(ptr != PTR_NULL)
 8002f84:	687b      	ldr	r3, [r7, #4]
 8002f86:	2b00      	cmp	r3, #0
 8002f88:	d005      	beq.n	8002f96 <MUSART1_uddtSetCallBack+0x1e>
	{
		MUSART1_CallBack = ptr ;
 8002f8a:	4a07      	ldr	r2, [pc, #28]	; (8002fa8 <MUSART1_uddtSetCallBack+0x30>)
 8002f8c:	687b      	ldr	r3, [r7, #4]
 8002f8e:	6013      	str	r3, [r2, #0]
		ret = MUSART_OK;
 8002f90:	2301      	movs	r3, #1
 8002f92:	73fb      	strb	r3, [r7, #15]
 8002f94:	e001      	b.n	8002f9a <MUSART1_uddtSetCallBack+0x22>
	}
	else
	{
		ret = MUSART_PTR_NULL;
 8002f96:	2302      	movs	r3, #2
 8002f98:	73fb      	strb	r3, [r7, #15]
	}

	return ret;
 8002f9a:	7bfb      	ldrb	r3, [r7, #15]
}
 8002f9c:	4618      	mov	r0, r3
 8002f9e:	3714      	adds	r7, #20
 8002fa0:	46bd      	mov	sp, r7
 8002fa2:	f85d 7b04 	ldr.w	r7, [sp], #4
 8002fa6:	4770      	bx	lr
 8002fa8:	20000108 	.word	0x20000108

08002fac <MUSART2_uddtSetCallBack>:

EN_MUSART_systeamState_t MUSART2_uddtSetCallBack( void (*ptr) (void) )
{
 8002fac:	b480      	push	{r7}
 8002fae:	b085      	sub	sp, #20
 8002fb0:	af00      	add	r7, sp, #0
 8002fb2:	6078      	str	r0, [r7, #4]
	EN_MUSART_systeamState_t ret = MUSART_NOK;
 8002fb4:	2300      	movs	r3, #0
 8002fb6:	73fb      	strb	r3, [r7, #15]

	if(ptr != PTR_NULL)
 8002fb8:	687b      	ldr	r3, [r7, #4]
 8002fba:	2b00      	cmp	r3, #0
 8002fbc:	d005      	beq.n	8002fca <MUSART2_uddtSetCallBack+0x1e>
	{
		MUSART2_CallBack = ptr ;
 8002fbe:	4a07      	ldr	r2, [pc, #28]	; (8002fdc <MUSART2_uddtSetCallBack+0x30>)
 8002fc0:	687b      	ldr	r3, [r7, #4]
 8002fc2:	6013      	str	r3, [r2, #0]
		ret = MUSART_OK;
 8002fc4:	2301      	movs	r3, #1
 8002fc6:	73fb      	strb	r3, [r7, #15]
 8002fc8:	e001      	b.n	8002fce <MUSART2_uddtSetCallBack+0x22>
	}
	else
	{
		ret = MUSART_PTR_NULL;
 8002fca:	2302      	movs	r3, #2
 8002fcc:	73fb      	strb	r3, [r7, #15]
	}

	return ret;}
 8002fce:	7bfb      	ldrb	r3, [r7, #15]
 8002fd0:	4618      	mov	r0, r3
 8002fd2:	3714      	adds	r7, #20
 8002fd4:	46bd      	mov	sp, r7
 8002fd6:	f85d 7b04 	ldr.w	r7, [sp], #4
 8002fda:	4770      	bx	lr
 8002fdc:	2000010c 	.word	0x2000010c

08002fe0 <USART1_IRQHandler>:
	return ret;
}


void USART1_IRQHandler(void)
{
 8002fe0:	b580      	push	{r7, lr}
 8002fe2:	af00      	add	r7, sp, #0
	MUART1_PERIPHERAL -> MUSART_SR = 0 ;
 8002fe4:	4b03      	ldr	r3, [pc, #12]	; (8002ff4 <USART1_IRQHandler+0x14>)
 8002fe6:	2200      	movs	r2, #0
 8002fe8:	601a      	str	r2, [r3, #0]
	MUSART1_CallBack();
 8002fea:	4b03      	ldr	r3, [pc, #12]	; (8002ff8 <USART1_IRQHandler+0x18>)
 8002fec:	681b      	ldr	r3, [r3, #0]
 8002fee:	4798      	blx	r3
}
 8002ff0:	bf00      	nop
 8002ff2:	bd80      	pop	{r7, pc}
 8002ff4:	40011000 	.word	0x40011000
 8002ff8:	20000108 	.word	0x20000108

08002ffc <USART2_IRQHandler>:

void USART2_IRQHandler(void)
{
 8002ffc:	b580      	push	{r7, lr}
 8002ffe:	af00      	add	r7, sp, #0
	MUART2_PERIPHERAL -> MUSART_SR = 0 ;
 8003000:	4b03      	ldr	r3, [pc, #12]	; (8003010 <USART2_IRQHandler+0x14>)
 8003002:	2200      	movs	r2, #0
 8003004:	601a      	str	r2, [r3, #0]
	MUSART2_CallBack();
 8003006:	4b03      	ldr	r3, [pc, #12]	; (8003014 <USART2_IRQHandler+0x18>)
 8003008:	681b      	ldr	r3, [r3, #0]
 800300a:	4798      	blx	r3
}
 800300c:	bf00      	nop
 800300e:	bd80      	pop	{r7, pc}
 8003010:	40004400 	.word	0x40004400
 8003014:	2000010c 	.word	0x2000010c

08003018 <USART6_IRQHandler>:

void USART6_IRQHandler(void)
{
 8003018:	b580      	push	{r7, lr}
 800301a:	af00      	add	r7, sp, #0
	MUART6_PERIPHERAL -> MUSART_SR = 0 ;
 800301c:	4b03      	ldr	r3, [pc, #12]	; (800302c <USART6_IRQHandler+0x14>)
 800301e:	2200      	movs	r2, #0
 8003020:	601a      	str	r2, [r3, #0]
	MUSART6_CallBack();
 8003022:	4b03      	ldr	r3, [pc, #12]	; (8003030 <USART6_IRQHandler+0x18>)
 8003024:	681b      	ldr	r3, [r3, #0]
 8003026:	4798      	blx	r3
}
 8003028:	bf00      	nop
 800302a:	bd80      	pop	{r7, pc}
 800302c:	40011400 	.word	0x40011400
 8003030:	20000110 	.word	0x20000110

08003034 <main>:
 */



void main(void)
{
 8003034:	b580      	push	{r7, lr}
 8003036:	af00      	add	r7, sp, #0
	ABCM_vSysInit();
 8003038:	f7fd fed2 	bl	8000de0 <ABCM_vSysInit>
	ABCM_vSysMangment();
 800303c:	f7fd ffc2 	bl	8000fc4 <ABCM_vSysMangment>
}
 8003040:	bf00      	nop
 8003042:	bd80      	pop	{r7, pc}

08003044 <Reset_Handler>:

  .section .text.Reset_Handler
  .weak Reset_Handler
  .type Reset_Handler, %function
Reset_Handler:
  ldr   r0, =_estack
 8003044:	480d      	ldr	r0, [pc, #52]	; (800307c <LoopForever+0x2>)
  mov   sp, r0          /* set stack pointer */
 8003046:	4685      	mov	sp, r0
/* Call the clock system initialization function.*/
  bl  SystemInit
 8003048:	f3af 8000 	nop.w

/* Copy the data segment initializers from flash to SRAM */
  ldr r0, =_sdata
 800304c:	480c      	ldr	r0, [pc, #48]	; (8003080 <LoopForever+0x6>)
  ldr r1, =_edata
 800304e:	490d      	ldr	r1, [pc, #52]	; (8003084 <LoopForever+0xa>)
  ldr r2, =_sidata
 8003050:	4a0d      	ldr	r2, [pc, #52]	; (8003088 <LoopForever+0xe>)
  movs r3, #0
 8003052:	2300      	movs	r3, #0
  b LoopCopyDataInit
 8003054:	e002      	b.n	800305c <LoopCopyDataInit>

08003056 <CopyDataInit>:

CopyDataInit:
  ldr r4, [r2, r3]
 8003056:	58d4      	ldr	r4, [r2, r3]
  str r4, [r0, r3]
 8003058:	50c4      	str	r4, [r0, r3]
  adds r3, r3, #4
 800305a:	3304      	adds	r3, #4

0800305c <LoopCopyDataInit>:

LoopCopyDataInit:
  adds r4, r0, r3
 800305c:	18c4      	adds	r4, r0, r3
  cmp r4, r1
 800305e:	428c      	cmp	r4, r1
  bcc CopyDataInit
 8003060:	d3f9      	bcc.n	8003056 <CopyDataInit>

/* Zero fill the bss segment. */
  ldr r2, =_sbss
 8003062:	4a0a      	ldr	r2, [pc, #40]	; (800308c <LoopForever+0x12>)
  ldr r4, =_ebss
 8003064:	4c0a      	ldr	r4, [pc, #40]	; (8003090 <LoopForever+0x16>)
  movs r3, #0
 8003066:	2300      	movs	r3, #0
  b LoopFillZerobss
 8003068:	e001      	b.n	800306e <LoopFillZerobss>

0800306a <FillZerobss>:

FillZerobss:
  str  r3, [r2]
 800306a:	6013      	str	r3, [r2, #0]
  adds r2, r2, #4
 800306c:	3204      	adds	r2, #4

0800306e <LoopFillZerobss>:

LoopFillZerobss:
  cmp r2, r4
 800306e:	42a2      	cmp	r2, r4
  bcc FillZerobss
 8003070:	d3fb      	bcc.n	800306a <FillZerobss>

/* Call static constructors */
  bl __libc_init_array
 8003072:	f000 f811 	bl	8003098 <__libc_init_array>
/* Call the application's entry point.*/
  bl main
 8003076:	f7ff ffdd 	bl	8003034 <main>

0800307a <LoopForever>:

LoopForever:
  b LoopForever
 800307a:	e7fe      	b.n	800307a <LoopForever>
  ldr   r0, =_estack
 800307c:	20010000 	.word	0x20010000
  ldr r0, =_sdata
 8003080:	20000000 	.word	0x20000000
  ldr r1, =_edata
 8003084:	20000070 	.word	0x20000070
  ldr r2, =_sidata
 8003088:	08003880 	.word	0x08003880
  ldr r2, =_sbss
 800308c:	20000070 	.word	0x20000070
  ldr r4, =_ebss
 8003090:	20000114 	.word	0x20000114

08003094 <ADC_IRQHandler>:
 * @retval : None
*/
  .section .text.Default_Handler,"ax",%progbits
Default_Handler:
Infinite_Loop:
  b Infinite_Loop
 8003094:	e7fe      	b.n	8003094 <ADC_IRQHandler>
	...

08003098 <__libc_init_array>:
 8003098:	b570      	push	{r4, r5, r6, lr}
 800309a:	4d0d      	ldr	r5, [pc, #52]	; (80030d0 <__libc_init_array+0x38>)
 800309c:	4c0d      	ldr	r4, [pc, #52]	; (80030d4 <__libc_init_array+0x3c>)
 800309e:	1b64      	subs	r4, r4, r5
 80030a0:	10a4      	asrs	r4, r4, #2
 80030a2:	2600      	movs	r6, #0
 80030a4:	42a6      	cmp	r6, r4
 80030a6:	d109      	bne.n	80030bc <__libc_init_array+0x24>
 80030a8:	4d0b      	ldr	r5, [pc, #44]	; (80030d8 <__libc_init_array+0x40>)
 80030aa:	4c0c      	ldr	r4, [pc, #48]	; (80030dc <__libc_init_array+0x44>)
 80030ac:	f000 f826 	bl	80030fc <_init>
 80030b0:	1b64      	subs	r4, r4, r5
 80030b2:	10a4      	asrs	r4, r4, #2
 80030b4:	2600      	movs	r6, #0
 80030b6:	42a6      	cmp	r6, r4
 80030b8:	d105      	bne.n	80030c6 <__libc_init_array+0x2e>
 80030ba:	bd70      	pop	{r4, r5, r6, pc}
 80030bc:	f855 3b04 	ldr.w	r3, [r5], #4
 80030c0:	4798      	blx	r3
 80030c2:	3601      	adds	r6, #1
 80030c4:	e7ee      	b.n	80030a4 <__libc_init_array+0xc>
 80030c6:	f855 3b04 	ldr.w	r3, [r5], #4
 80030ca:	4798      	blx	r3
 80030cc:	3601      	adds	r6, #1
 80030ce:	e7f2      	b.n	80030b6 <__libc_init_array+0x1e>
 80030d0:	08003878 	.word	0x08003878
 80030d4:	08003878 	.word	0x08003878
 80030d8:	08003878 	.word	0x08003878
 80030dc:	0800387c 	.word	0x0800387c

080030e0 <memcpy>:
 80030e0:	440a      	add	r2, r1
 80030e2:	4291      	cmp	r1, r2
 80030e4:	f100 33ff 	add.w	r3, r0, #4294967295
 80030e8:	d100      	bne.n	80030ec <memcpy+0xc>
 80030ea:	4770      	bx	lr
 80030ec:	b510      	push	{r4, lr}
 80030ee:	f811 4b01 	ldrb.w	r4, [r1], #1
 80030f2:	f803 4f01 	strb.w	r4, [r3, #1]!
 80030f6:	4291      	cmp	r1, r2
 80030f8:	d1f9      	bne.n	80030ee <memcpy+0xe>
 80030fa:	bd10      	pop	{r4, pc}

080030fc <_init>:
 80030fc:	b5f8      	push	{r3, r4, r5, r6, r7, lr}
 80030fe:	bf00      	nop
 8003100:	bcf8      	pop	{r3, r4, r5, r6, r7}
 8003102:	bc08      	pop	{r3}
 8003104:	469e      	mov	lr, r3
 8003106:	4770      	bx	lr

08003108 <_fini>:
 8003108:	b5f8      	push	{r3, r4, r5, r6, r7, lr}
 800310a:	bf00      	nop
 800310c:	bcf8      	pop	{r3, r4, r5, r6, r7}
 800310e:	bc08      	pop	{r3}
 8003110:	469e      	mov	lr, r3
 8003112:	4770      	bx	lr
